(dp0
(S'dullest'
p1
S'science'
p2
tp3
I2
s(S'dummies'
p4
S'conformity'
p5
tp6
I2
s(S'redundancy'
p7
S'#'
p8
tp9
I3
s(S'days'
p10
g8
tp11
I3
s(S'ham'
p12
S'fisted'
p13
tp14
I2
s(S'pitfalls'
p15
S'incoherence'
p16
tp17
I3
s(S'seconds'
p18
S'plot'
p19
tp20
I2
s(S'dialogue'
p21
g18
tp22
I2
s(S'*'
p23
S'sour'
p24
tp25
I2
s(S'barely'
p26
S'interesting'
p27
tp28
I2
s(S'project'
p29
g8
tp30
I2
s(S'crawl'
p31
S'own'
p32
tp33
I2
s(S'four'
p34
S'fine'
p35
tp36
I2
s(S'complete'
p37
S'soothing'
p38
tp39
I3
s(S's'
p40
S'imagination'
p41
tp42
I2
s(g23
S'same'
p43
tp44
I2
s(S'vapid'
p45
S'devoid'
p46
tp47
I3
s(S'between'
p48
S'punchlines'
p49
tp50
I3
s(S'whom'
p51
S'idea'
p52
tp53
I2
s(S'surrender'
p54
S'minutes'
p55
tp56
I3
s(g55
S'unrecoverable'
p57
tp58
I3
s(S'witch'
p59
g29
tp60
I2
s(S'busy'
p61
S'contriving'
p62
tp63
I2
s(g23
S'never'
p64
tp65
I3
s(S'muzak'
p66
S'cushion'
p67
tp68
I3
s(g5
g8
tp69
I2
s(g23
S'more'
p70
tp71
I2
s(S'sun'
p72
S'good'
p73
tp74
I3
s(S'worth'
p75
S'telling'
p76
tp77
I2
s(S'litmus'
p78
S'test'
p79
tp80
I2
s(S'rhythms'
p81
g8
tp82
I3
s(S'movie'
p83
S'were'
p84
tp85
I3
s(S'enough'
p86
S'sit'
p87
tp88
I2
s(S'subzero'
p89
S'version'
p90
tp91
I2
s(S'squandering'
p92
g34
tp93
I2
s(S'utterly'
p94
S'incompetent'
p95
tp96
I2
s(S'boring'
p97
S'before'
p98
tp99
I2
s(S'false'
p100
S'sitcom'
p101
tp102
I2
s(g23
S'll'
p103
tp104
I2
s(S'numbingly'
p105
S'indescribably'
p106
tp107
I3
s(S'unamusing'
p108
S'thoroughly'
p109
tp110
I3
s(g23
S'dialogue'
p111
tp112
I2
s(S'wretchedly'
p113
S'unfunny'
p114
tp115
I2
s(g52
S'narrative'
p116
tp117
I2
s(S'foreign'
p118
S'concept'
p119
tp120
I2
s(S'impossible'
p121
S'care'
p122
tp123
I2
s(S'left'
p124
S'broiling'
p125
tp126
I3
s(S'long'
p127
S'end'
p128
tp129
I2
s(S'definitely'
p130
S'meaningless'
p131
tp132
I2
s(S'accents'
p133
g8
tp134
I2
s(S'tell'
p135
S'tedious'
p136
tp137
I2
s(S'admire'
p138
g8
tp139
I2
s(S'lunch'
p140
g8
tp141
I3
s(S'bad'
p142
S'scouse'
p143
tp144
I2
s(S'piece'
p145
S'crap'
p146
tp147
I2
s(S'here'
p148
S'load'
p149
tp150
I2
s(S'creeps'
p151
S'revolution'
p152
tp153
I2
s(S'rain'
p154
g8
tp155
I2
s(S'nt'
p156
g75
tp157
I2
s(g38
g66
tp158
I3
s(S'concert'
p159
g8
tp160
I2
s(S'bad'
p161
S'imitation'
p162
tp163
I2
s(S'puddle'
p164
S'movie'
p165
tp166
I2
s(S'again'
p167
g8
tp168
I3
s(g23
S'no'
p169
tp170
I2
s(S'right'
p171
S'mind'
p172
tp173
I2
s(S'extreme'
p174
S'ops'
p175
tp176
I2
s(S'giant'
p177
S'step'
p178
tp179
I2
s(S'loose'
p180
S'poorly'
p181
tp182
I3
s(S'talents'
p183
g8
tp184
I2
s(S'movie'
p185
S'production'
p186
tp187
I2
s(S'latter'
p188
g40
tp189
I2
s(S'prescribed'
p190
S'recommended'
p191
tp192
I3
s(S'mind'
p193
g105
tp194
I3
s(S'anything'
p195
g8
tp196
I2
s(S'slapdash'
p197
S'sequel'
p198
tp199
I2
s(S'cheaper'
p200
S'action'
p201
tp202
I2
s(g40
S'waiting'
p203
tp204
I3
s(g23
S'put'
p205
tp206
I2
s(S'never'
p207
S'quite'
p208
tp209
I2
s(S'barely'
p210
g195
tp211
I2
s(g23
S'terrible'
p212
tp213
I2
s(S'predictable'
p214
S'narrative'
p215
tp216
I3
s(S'celluloid'
p217
g78
tp218
I2
s(S'half'
p219
S'baked'
p220
tp221
I2
s(g23
S'needs'
p222
tp223
I2
s(S'credits'
p224
S'desert'
p225
tp226
I2
s(g186
S'values'
p227
tp228
I2
s(g116
S'logic'
p229
tp230
I2
s(S'ingenuity'
p231
g8
tp232
I2
s(S'rock'
p233
g159
tp234
I2
s(S'terrible'
p235
g8
tp236
I2
s(g23
S'long'
p237
tp238
I2
s(S'guide'
p239
g180
tp240
I3
s(S'losing'
p241
g140
tp242
I3
s(g23
S'feels'
p243
tp244
I3
s(S'goes'
p245
S'nowhere'
p246
tp247
I2
s(S'three'
p248
g10
tp249
I3
s(S'disaster'
p250
g8
tp251
I3
s(S'plot'
p252
g40
tp253
I2
s(S'yet'
p254
S'nonexistent'
p255
tp256
I2
s(S'story'
p257
g156
tp258
I2
s(S'bad'
p259
S'company'
p260
tp261
I2
s(S'bad'
p262
S'blair'
p263
tp264
I2
s(g203
S'room'
p265
tp266
I3
s(S'camouflage'
p267
S'bad'
p268
tp269
I2
s(g255
S'ideas'
p270
tp271
I2
s(g23
S'does'
p272
tp273
I3
s(S'stunt'
p274
S'editing'
p275
tp276
I2
s(S'worse'
p277
g274
tp278
I2
s(g27
g210
tp279
I2
s(g23
S'has'
p280
tp281
I4
s(g268
S'movie'
p282
tp283
I9
s(S'keeps'
p284
S'being'
p285
tp286
I2
s(S'crap'
p287
S'like'
p288
tp289
I2
s(S'poorly'
p290
S'paced'
p291
tp292
I3
s(g70
g190
tp293
I2
s(S'll'
p294
g31
tp295
I2
s(S'sit'
p296
S'through'
p297
tp298
I5
s(S'necessary'
p299
S'self'
p300
tp301
I2
s(S'paid'
p302
g86
tp303
I2
s(g270
g8
tp304
I2
s(g265
g37
tp305
I3
s(S'tang'
p306
g48
tp307
I3
s(g181
S'structured'
p308
tp309
I3
s(g23
S'very'
p310
tp311
I2
s(g23
S'poorly'
p312
tp313
I3
s(g32
S'embarrassment'
p314
tp315
I2
s(g23
S'movie'
p316
tp317
I5
s(g119
g8
tp318
I3
s(S'make'
p319
S'suckers'
p320
tp321
I2
s(S'ca'
p322
S'nt'
p323
tp324
I3
s(g314
g8
tp325
I2
s(S'too'
p326
S'boring'
p327
tp328
I2
s(S'barely'
p329
S'shocking'
p330
tp331
I2
s(S'entirely'
p332
g118
tp333
I2
s(S'let'
p334
S'alone'
p335
tp336
I2
s(g23
S'lacks'
p337
tp338
I2
s(S'life'
p339
g8
tp340
I4
s(g40
S'endless'
p341
tp342
I2
s(S'rejected'
p343
g97
tp344
I2
s(S'through'
p345
g287
tp346
I2
s(g98
g145
tp347
I2
s(g23
S'bad'
p348
tp349
I6
s(S'film'
p350
S'through'
p351
tp352
I3
s(S'fit'
p353
S'pootie'
p354
tp355
I3
s(S'backward'
p356
S'director'
p357
tp358
I2
s(S'none'
p359
S'ever'
p360
tp361
I2
s(g348
S'operative'
p362
tp363
I2
s(g23
S'low'
p364
tp365
I2
s(S'reckless'
p366
g92
tp367
I2
s(S'clams'
p368
g124
tp369
I3
s(g227
g174
tp370
I2
s(S'embarrassingly'
p371
g12
tp372
I2
s(S'anything'
p373
S'more'
p374
tp375
I2
s(S'film'
p376
g217
tp377
I2
s(S'almost'
p378
S'every'
p379
tp380
I2
s(g40
S'rushed'
p381
tp382
I2
s(S'action'
p383
S'films'
p384
tp385
I2
s(S'word'
p386
g259
tp387
I2
s(S'obvious'
p388
g8
tp389
I2
s(S'made'
p390
S'people'
p391
tp392
I2
s(g23
g40
tp393
I23
s(g23
S'new'
p394
tp395
I2
s(S'less'
p396
S'half'
p397
tp398
I2
s(S'harvard'
p399
S'horrible'
p400
tp401
I3
s(S'sex'
p402
S'jokes'
p403
tp404
I2
s(g215
g81
tp405
I3
s(S'intellectual'
p406
S'emotional'
p407
tp408
I2
s(g2
S'fiction'
p409
tp410
I2
s(S'grand'
p411
S'failure'
p412
tp413
I3
s(g407
S'pedigree'
p414
tp415
I2
s(g23
S'story'
p416
tp417
I2
s(g391
g51
tp418
I2
s(g23
S'nt'
p419
tp420
I4
s(S'visually'
p421
S'bland'
p422
tp423
I3
s(S'car'
p424
S'chase'
p425
tp426
I2
s(S'course'
p427
g8
tp428
I2
s(S'pointless'
p429
g8
tp430
I2
s(g101
S'worthy'
p431
tp432
I2
s(S'trapped'
p433
S'bad'
p434
tp435
I2
s(S'being'
p436
g433
tp437
I2
s(S'plot'
p438
g231
tp439
I2
s(g23
S'biggest'
p440
tp441
I2
s(g136
S'resolutely'
p442
tp443
I2
s(g149
g368
tp444
I3
s(S'director'
p445
g40
tp446
I2
s(S'head'
p447
g8
tp448
I2
s(S'paper'
p449
S'thin'
p450
tp451
I2
s(g201
g185
tp452
I2
s(g23
S'might'
p453
tp454
I2
s(g46
S'substance'
p455
tp456
I2
s(S'mess'
p457
g8
tp458
I2
s(g409
g8
tp459
I2
s(S'hip'
p460
S'hop'
p461
tp462
I2
s(g79
g406
tp463
I2
s(S'rip'
p464
S'off'
p465
tp466
I3
s(S'close'
p467
g241
tp468
I2
s(S'more'
p469
S'like'
p470
tp471
I2
s(g84
g411
tp472
I3
s(g360
S'good'
p473
tp474
I2
s(S'together'
p475
S'cynical'
p476
tp477
I2
s(S'soul'
p478
S'screenwriting'
p479
tp480
I2
s(g381
g197
tp481
I2
s(S'meaningless'
p482
g45
tp483
I3
s(g434
g233
tp484
I2
s(S'script'
p485
g40
tp486
I2
s(g23
S'sit'
p487
tp488
I2
s(g285
S'cast'
p489
tp490
I2
s(g362
g386
tp491
I2
s(g291
g353
tp492
I3
s(g40
g329
tp493
I2
s(S'flimsy'
p494
S'worse'
p495
tp496
I2
s(S'saw'
p497
g277
tp498
I2
s(g152
S'studios'
p499
tp500
I2
s(g272
S'nt'
p501
tp502
I9
s(S'made'
p503
S'someone'
p504
tp505
I2
s(g327
g388
tp506
I2
s(g476
g151
tp507
I2
s(g198
S'sake'
p508
tp509
I2
s(g13
g402
tp510
I2
s(g419
S'stealing'
p511
tp512
I2
s(g397
g438
tp513
I2
s(g128
g224
tp514
I2
s(S'inc'
p515
S'without'
p516
tp517
I2
s(g109
S'unrewarding'
p518
tp519
I3
s(g412
g8
tp520
I3
s(S'hopes'
p521
g267
tp522
I2
s(g23
S'pitiful'
p523
tp524
I2
s(g114
S'wannabe'
p525
tp526
I2
s(S'does'
p527
g154
tp528
I2
s(S'ugly'
p529
S'destructive'
p530
tp531
I2
s(S'dentist'
p532
g40
tp533
I3
s(g300
S'control'
p534
tp535
I2
s(S'experience'
p536
g8
tp537
I2
s(g260
g8
tp538
I2
s(S'blade'
p539
S'ii'
p540
tp541
I2
s(g534
g239
tp542
I2
s(g473
g8
tp543
I2
s(g357
g138
tp544
I2
s(g143
g133
tp545
I2
s(S'monsters'
p546
g515
tp547
I2
s(g73
g248
tp548
I3
s(S'movie'
p549
g8
tp550
I19
s(g23
S'begin'
p551
tp552
I2
s(g23
g113
tp553
I2
s(S'monster'
p554
S'movie'
p555
tp556
I2
s(S'little'
p557
g164
tp558
I2
s(g499
S'imagine'
p559
tp560
I2
s(S'last'
p561
S'time'
p562
tp563
I2
s(g354
g306
tp564
I3
s(S'atrociously'
p565
g193
tp566
I2
s(S'entertainment'
p567
g319
tp568
I2
s(g516
g188
tp569
I2
s(g551
g127
tp570
I2
s(S'feel'
p571
S'like'
p572
tp573
I2
s(S'real'
p574
g339
tp575
I3
s(S'like'
p576
g436
tp577
I2
s(S'cohesion'
p578
g332
tp579
I2
s(S'summer'
p580
g8
tp581
I2
s(S'problems'
p582
g8
tp583
I2
s(g518
g366
tp584
I2
s(g501
g299
tp585
I2
s(g125
g72
tp586
I3
s(g275
g200
tp587
I2
s(g23
S'ultimately'
p588
tp589
I2
s(g178
g356
tp590
I2
s(g23
S'fails'
p591
tp592
I2
s(g479
g4
tp593
I2
s(g16
g7
tp594
I3
s(g205
g475
tp595
I2
s(g320
g54
tp596
I2
s(g310
g142
tp597
I2
s(g351
g15
tp598
I3
s(g495
g254
tp599
I2
s(g229
g578
tp600
I2
s(S'bore'
p601
g8
tp602
I2
s(S'assault'
p603
g371
tp604
I2
s(g442
g108
tp605
I3
s(g414
S'date'
p606
tp607
I2
s(g23
S'really'
p608
tp609
I2
s(g67
g214
tp610
I3
s(g559
g567
tp611
I2
s(S'really'
p612
g161
tp613
I4
s(g341
g603
tp614
I2
s(g90
g546
tp615
I2
s(S'silly'
p616
g557
tp617
I2
s(g508
S'sequel'
p618
tp619
I2
s(g8
g23
tp620
I359
s(S'made'
p621
S'film'
p622
tp623
I2
s(S'behave'
p624
S'like'
p625
tp626
I2
s(S'minutes'
p627
g8
tp628
I2
s(g23
S'feel'
p629
tp630
I2
s(g525
S'comedy'
p631
tp632
I2
s(S'bad'
p633
S'bad'
p634
tp635
I3
s(g62
g100
tp636
I2
s(g106
S'bad'
p637
tp638
I3
s(g23
S'acting'
p639
tp640
I2
s(S'film'
p641
g40
tp642
I4
s(g175
g8
tp643
I2
s(g76
g8
tp644
I2
s(g23
g322
tp645
I2
s(S'loses'
p646
g478
tp647
I2
s(S'full'
p648
S'holes'
p649
tp650
I2
s(g511
g399
tp651
I3
s(g562
g497
tp652
I2
s(S'anyone'
p653
g171
tp654
I2
s(S'contrived'
p655
S'plot'
p656
tp657
I2
s(g57
S'life'
p658
tp659
I3
s(g330
g26
tp660
I2
s(S'acting'
p661
g183
tp662
I2
s(S'comedy'
p663
g8
tp664
I3
s(g49
g8
tp665
I3
s(g656
g8
tp666
I3
s(g35
g661
tp667
I2
s(g23
S're'
p668
tp669
I2
s(g422
g532
tp670
I3
s(g308
g350
tp671
I3
s(g23
S'like'
p672
tp673
I3
s(g40
S'not'
p674
tp675
I4
s(S'material'
p676
g8
tp677
I3
s(g225
g527
tp678
I2
s(g400
g83
tp679
I3
s(S'ludicrous'
p680
g655
tp681
I2
s(g489
g383
tp682
I2
s(S'garbage'
p683
g8
tp684
I2
s(g263
g59
tp685
I2
s(g606
g177
tp686
I2
s(S'history'
p687
g8
tp688
I2
s(S'story'
p689
g8
tp690
I2
s(g23
S'wasted'
p691
tp692
I2
s(S'solutions'
p693
g582
tp694
I2
s(g431
g693
tp695
I2
s(g146
g167
tp696
I2
s(g618
g396
tp697
I2
s(g191
g421
tp698
I3
s(g384
g359
tp699
I2
s.