(dp0
(S'funniest'
p1
S'likeable'
p2
tp3
I2
s(S'grade'
p4
S'school'
p5
tp6
I2
s(S'happy'
p7
S'hour'
p8
tp9
I2
s(S'movie'
p10
S'experience'
p11
tp12
I2
s(S'handed'
p13
S'down'
p14
tp15
I2
s(S'sometimes'
p16
S'hilarious'
p17
tp18
I2
s(S'namesake'
p19
S'proud'
p20
tp21
I2
s(S'gorgeous'
p22
S'visuals'
p23
tp24
I2
s(S'beautifully'
p25
S'crafted'
p26
tp27
I2
s(S'delightfully'
p28
S'charming'
p29
tp30
I2
s(S'has'
p31
S'turned'
p32
tp33
I2
s(S'fascinating'
p34
S'profile'
p35
tp36
I2
s(S'intense'
p37
S'indoor'
p38
tp39
I2
s(S'*'
p40
S'flat'
p41
tp42
I2
s(g40
S'impeccable'
p43
tp44
I2
s(S'pretty'
p45
S'damned'
p46
tp47
I2
s(S'creepy'
p48
S'stories'
p49
tp50
I4
s(S'known'
p51
S'creation'
p52
tp53
I2
s(S'bored'
p54
S'#'
p55
tp56
I2
s(S'timing'
p57
S'raffish'
p58
tp59
I2
s(S'harrowing'
p60
S'uplifting'
p61
tp62
I2
s(S'family'
p63
S'fundamentals'
p64
tp65
I2
s(S'blend'
p66
S'counter'
p67
tp68
I2
s(S'ourselves'
p69
S'surprised'
p70
tp71
I2
s(g40
g25
tp72
I2
s(S'snappy'
p73
S'dialogue'
p74
tp75
I2
s(g40
S'funny'
p76
tp77
I5
s(S'battle'
p78
S'scenes'
p79
tp80
I2
s(S'worry'
p81
S'anyone'
p82
tp83
I2
s(S'performance'
p84
g55
tp85
I4
s(S'unfolds'
p86
g55
tp87
I2
s(S'masterpiece'
p88
S'goosebumps'
p89
tp90
I2
s(S'base'
p91
S'melodrama'
p92
tp93
I2
s(S'upper'
p94
S'echelons'
p95
tp96
I2
s(S'line'
p97
S's'
p98
tp99
I2
s(S'like'
p100
S'those'
p101
tp102
I4
s(g40
S'footage'
p103
tp104
I2
s(S'twisted'
p105
g55
tp106
I2
s(S'time'
p107
S'credits'
p108
tp109
I2
s(S'bittersweet'
p110
S'contemporary'
p111
tp112
I2
s(S'film'
p113
g55
tp114
I9
s(g40
S'majestic'
p115
tp116
I3
s(S'apocalypse'
p117
S'movies'
p118
tp119
I2
s(S'evocative'
p120
S'film'
p121
tp122
I2
s(S'treatment'
p123
S'greene'
p124
tp125
I2
s(S'atmosphere'
p126
S'crime'
p127
tp128
I2
s(S'great'
p129
S'films'
p130
tp131
I2
s(g40
S'director'
p132
tp133
I2
s(S'strange'
p134
S'movie'
p135
tp136
I2
s(S'stone'
p137
S'iii'
p138
tp139
I2
s(S'shudder'
p140
S'tremble'
p141
tp142
I2
s(g40
S'splendid'
p143
tp144
I2
s(g40
S'deliver'
p145
tp146
I2
s(S'still'
p147
S'very'
p148
tp149
I2
s(S'stuff'
p150
g55
tp151
I2
s(g98
S'witnessed'
p152
tp153
I2
s(g40
S'luminous'
p154
tp155
I2
s(S'levy'
p156
S'like'
p157
tp158
I2
s(g40
S'forcefully'
p159
tp160
I2
s(S'debut'
p161
S'chaiken'
p162
tp163
I2
s(g124
g98
tp164
I2
s(S'viewers'
p165
S'guessing'
p166
tp167
I2
s(S'pleasing'
p168
S'best'
p169
tp170
I2
s(S'watching'
p171
S'spy'
p172
tp173
I2
s(S'intelligent'
p174
S'deeply'
p175
tp176
I2
s(g138
S'applies'
p177
tp178
I2
s(g40
S'always'
p179
tp180
I2
s(g169
S'moments'
p181
tp182
I2
s(S'energy'
p183
g98
tp184
I2
s(S'summer'
p185
g98
tp186
I2
s(S'original'
p187
S'frailty'
p188
tp189
I2
s(S'surprisingly'
p190
S'touching'
p191
tp192
I2
s(S'creates'
p193
S'portrait'
p194
tp195
I2
s(g40
S'humor'
p196
tp197
I2
s(S'amaze'
p198
g55
tp199
I2
s(g40
S'brilliant'
p200
tp201
I4
s(S'creativity'
p202
g55
tp203
I2
s(g98
S'simultaneously'
p204
tp205
I2
s(g40
S'finds'
p206
tp207
I2
s(S'film'
p208
S'female'
p209
tp210
I2
s(g40
S'very'
p211
tp212
I4
s(S'beneath'
p213
S'prim'
p214
tp215
I2
s(g40
g28
tp216
I2
s(S'hilarious'
p217
S'follow'
p218
tp219
I2
s(g40
S'commands'
p220
tp221
I2
s(S'prevails'
p222
g55
tp223
I2
s(g40
S'tale'
p224
tp225
I2
s(S'comic'
p226
g57
tp227
I2
s(g43
g226
tp228
I2
s(g40
S'demonstrates'
p229
tp230
I2
s(S'explores'
p231
S'monster'
p232
tp233
I2
s(S'remarkably'
p234
g187
tp235
I2
s(S'story'
p236
S'capture'
p237
tp238
I2
s(S'spirited'
p239
S'imaginative'
p240
tp241
I2
s(S'unabashedly'
p242
S'romantic'
p243
tp244
I2
s(S'wit'
p245
S'new'
p246
tp247
I2
s(S'standout'
p248
S'performance'
p249
tp250
I2
s(g40
S'engages'
p251
tp252
I2
s(S'family'
p253
S'comedy'
p254
tp255
I2
s(S'entertaining'
p256
S'had'
p257
tp258
I2
s(S'artist'
p259
S'spite'
p260
tp261
I2
s(S'clever'
p262
S'suspenseful'
p263
tp264
I3
s(g40
S'spider'
p265
tp266
I2
s(S'features'
p267
g248
tp268
I2
s(S'chief'
p269
S'film'
p270
tp271
I2
s(g40
S'builds'
p272
tp273
I2
s(S'pathology'
p274
S'evolved'
p275
tp276
I2
s(S'bliss'
p277
g55
tp278
I2
s(S'makes'
p279
S'each'
p280
tp281
I2
s(S'imax'
p282
g55
tp283
I2
s(S'girl'
p284
g55
tp285
I2
s(S'beautifully'
p286
S'made'
p287
tp288
I2
s(S'doing'
p289
g19
tp290
I2
s(S'romantic'
p291
S'comedy'
p292
tp293
I2
s(g40
S'telling'
p294
tp295
I2
s(g40
g98
tp296
I2
s(S'collection'
p297
g55
tp298
I2
s(g40
S'powerful'
p299
tp300
I2
s(S'best'
p301
g51
tp302
I2
s(S'certainly'
p303
S'delivers'
p304
tp305
I2
s(S'heart'
p306
g55
tp307
I2
s(S'bigelow'
p308
S'demonstrates'
p309
tp310
I2
s(S'weave'
p311
S'eerie'
p312
tp313
I2
s(S'gem'
p314
g55
tp315
I2
s(g40
S'nt'
p316
tp317
I2
s(S'knew'
p318
S'existed'
p319
tp320
I2
s(S'film'
p321
S'does'
p322
tp323
I2
s(S'grim'
p324
S'portrait'
p325
tp326
I2
s(S'burning'
p327
S'man'
p328
tp329
I2
s(g40
S'commander'
p330
tp331
I2
s(S'male'
p332
S'persona'
p333
tp334
I2
s(S'add'
p335
S'slice'
p336
tp337
I2
s(g40
S'daring'
p338
tp339
I2
s(S'exploration'
p340
g55
tp341
I2
s(g40
S'uncommonly'
p342
tp343
I2
s(S'sacrifice'
p344
S'christian'
p345
tp346
I2
s(g40
S'engrossing'
p347
tp348
I2
s(g40
S'delivers'
p349
tp350
I2
s(S'good'
p351
S'performances'
p352
tp353
I2
s(S'sobering'
p354
S'powerful'
p355
tp356
I2
s(S'scenes'
p357
S'cussing'
p358
tp359
I2
s(g98
S'pleasurable'
p360
tp361
I2
s(S'little'
p362
g284
tp363
I2
s(S'picture'
p364
g55
tp365
I2
s(S'humor'
p366
S'itself'
p367
tp368
I2
s(S'real'
p369
S'americans'
p370
tp371
I2
s(S'shoots'
p372
S'scores'
p373
tp374
I2
s(g40
S'interesting'
p375
tp376
I3
s(S'proves'
p377
S'simultaneously'
p378
tp379
I2
s(g194
S'strong'
p380
tp381
I2
s(S'love'
p382
S'communal'
p383
tp384
I2
s(S'across'
p385
S'pat'
p386
tp387
I2
s(S'always'
p388
S'surprising'
p389
tp390
I2
s(S'stooping'
p391
g91
tp392
I2
s(g263
g55
tp393
I3
s(S'has'
p394
S'been'
p395
tp396
I2
s(g175
g55
tp397
I2
s(S'bruce'
p398
S'mcculloch'
p399
tp400
I2
s(S'life'
p401
S'never'
p402
tp403
I2
s(S'engrossing'
p404
g236
tp405
I2
s(S'charmer'
p406
g55
tp407
I2
s(S'midnight'
p408
S'telling'
p409
tp410
I4
s(S'ambiguous'
p411
S'enough'
p412
tp413
I2
s(S'has'
p414
S'created'
p415
tp416
I2
s(S'film'
p417
S'bring'
p418
tp419
I2
s(S'fascinating'
p420
g55
tp421
I2
s(S'superb'
p422
S'performances'
p423
tp424
I2
s(S'himself'
p425
S'neither'
p426
tp427
I2
s(S'often'
p428
S'hilarious'
p429
tp430
I3
s(g243
g55
tp431
I2
s(S'without'
p432
g391
tp433
I2
s(S'not'
p434
S'rival'
p435
tp436
I2
s(S'deception'
p437
S'while'
p438
tp439
I2
s(S'great'
p440
S'film'
p441
tp442
I2
s(g232
g98
tp443
I2
s(S'covers'
p444
S'territory'
p445
tp446
I2
s(g220
S'interest'
p447
tp448
I2
s(S'phenomenal'
p449
S'band'
p450
tp451
I2
s(g209
S'friendship'
p452
tp453
I2
s(S'visceral'
p454
S'spiritual'
p455
tp456
I2
s(S'job'
p457
S'updating'
p458
tp459
I2
s(S'gibson'
p460
S'gasp'
p461
tp462
I2
s(S'has'
p463
S'great'
p464
tp465
I2
s(g40
S'fascinating'
p466
tp467
I5
s(S'energy'
p468
g55
tp469
I2
s(S'fierce'
p470
S'grandeur'
p471
tp472
I2
s(S'remains'
p473
S'surprisingly'
p474
tp475
I2
s(S'beat'
p476
g55
tp477
I2
s(S'tale'
p478
g382
tp479
I2
s(S'proves'
p480
S'director'
p481
tp482
I2
s(g347
g324
tp483
I2
s(S'multiplex'
p484
g55
tp485
I2
s(g40
g234
tp486
I2
s(S'psychology'
p487
S'not'
p488
tp489
I2
s(S'around'
p490
S'campfire'
p491
tp492
I4
s(g89
S'uncanny'
p493
tp494
I2
s(S'cooly'
p495
S'unsettling'
p496
tp497
I2
s(S'glides'
p498
S'gracefully'
p499
tp500
I2
s(S'each'
p501
S'willies'
p502
tp503
I4
s(g240
S'kid'
p504
tp505
I2
s(g98
S'music'
p506
tp507
I2
s(g40
g193
tp508
I2
s(S'spell'
p509
S'mel'
p510
tp511
I2
s(g435
S'filmmaker'
p512
tp513
I2
s(S'par'
p514
S'slickest'
p515
tp516
I2
s(S'style'
p517
g55
tp518
I3
s(g40
S'lilo'
p519
tp520
I2
s(g360
S'movies'
p521
tp522
I2
s(g40
g107
tp523
I2
s(S'three'
p524
S'decades'
p525
tp526
I2
s(S'not'
p527
S'satisfied'
p528
tp529
I2
s(S'conversations'
p530
S'thing'
p531
tp532
I2
s(S'innocence'
p533
S'budding'
p534
tp535
I2
s(g40
S'stanzas'
p536
tp537
I2
s(S'great'
p538
S'fun'
p539
tp540
I2
s(S'consistently'
p541
S'delightful'
p542
tp543
I2
s(S'outing'
p544
S'france'
p545
tp546
I2
s(S'vulgarity'
p547
S'sex'
p548
tp549
I2
s(S'nomination'
p550
S'best'
p551
tp552
I2
s(S'never'
p553
S'forget'
p554
tp555
I2
s(S'around'
p556
g408
tp557
I4
s(S'funny'
p558
S'punny'
p559
tp560
I2
s(g40
g550
tp561
I2
s(S'afraid'
p562
g301
tp563
I2
s(S'very'
p564
S'entertaining'
p565
tp566
I2
s(S'female'
p567
S'without'
p568
tp569
I2
s(g46
S'funny'
p570
tp571
I2
s(g531
S'small'
p572
tp573
I2
s(S'insight'
p574
S'urban'
p575
tp576
I2
s(S'good'
p577
g253
tp578
I2
s(g525
S'ago'
p579
tp580
I2
s(g294
S'heart'
p581
tp582
I2
s(S'detail'
p583
S'propels'
p584
tp585
I2
s(g40
S'masterpiece'
p586
tp587
I2
s(g121
g524
tp588
I2
s(S'seas'
p589
S'sand'
p590
tp591
I2
s(S'cast'
p592
S'great'
p593
tp594
I2
s(g40
S'chilling'
p595
tp596
I2
s(S'diane'
p597
S'lane'
p598
tp599
I2
s(S'wit'
p600
S'originality'
p601
tp602
I2
s(S'college'
p603
S'story'
p604
tp605
I2
s(S'clients'
p606
g55
tp607
I2
s(S'expected'
p608
g55
tp609
I2
s(S'lovely'
p610
S'film'
p611
tp612
I2
s(S'kind'
p613
g183
tp614
I2
s(S'highly'
p615
g239
tp616
I2
s(g466
S'documentary'
p617
tp618
I2
s(S'acted'
p619
g55
tp620
I2
s(g130
g401
tp621
I2
s(S'full'
p622
g613
tp623
I2
s(S'solely'
p624
S'exercise'
p625
tp626
I2
s(g40
S'penetrating'
p627
tp628
I2
s(g455
S'wonderfully'
p629
tp630
I2
s(g328
S'ethos'
p631
tp632
I2
s(S'music'
p633
S'documentary'
p634
tp635
I2
s(S'conflict'
p636
S'inextricably'
p637
tp638
I2
s(g141
S'without'
p639
tp640
I2
s(S'much'
p641
S'care'
p642
tp643
I2
s(S'goods'
p644
g55
tp645
I2
s(g423
S'throughout'
p646
tp647
I2
s(g488
S'order'
p648
tp649
I2
s(S'movie'
p650
g411
tp651
I2
s(S'tears'
p652
S'during'
p653
tp654
I2
s(g5
S'audience'
p655
tp656
I2
s(g20
g55
tp657
I2
s(g40
S'good'
p658
tp659
I5
s(S'absorbing'
p660
g544
tp661
I2
s(S'emotionally'
p662
S'satisfying'
p663
tp664
I2
s(S'comedy'
p665
S'deft'
p666
tp667
I2
s(g40
g110
tp668
I2
s(S'more'
p669
S'fun'
p670
tp671
I2
s(g154
S'interviews'
p672
tp673
I2
s(g627
S'potent'
p674
tp675
I2
s(g145
S'riveting'
p676
tp677
I2
s(S'film'
p678
g98
tp679
I2
s(g40
S'executed'
p680
tp681
I3
s(S'captures'
p682
g533
tp683
I2
s(S'take'
p684
S'grandkids'
p685
tp686
I2
s(S'actors'
p687
g55
tp688
I3
s(S'rewarding'
p689
S'experience'
p690
tp691
I2
s(S'gets'
p692
S'riled'
p693
tp694
I2
s(S'frank'
p695
S'humanity'
p696
tp697
I2
s(g474
S'idealistic'
p698
tp699
I2
s(g40
S'call'
p700
tp701
I2
s(S'through'
p702
S'family'
p703
tp704
I2
s(S'absolutely'
p705
S'earned'
p706
tp707
I2
s(S'almost'
p708
g624
tp709
I2
s(S'comedy'
p710
S'benevolent'
p711
tp712
I2
s(g98
S'being'
p713
tp714
I2
s(S'reno'
p715
g440
tp716
I2
s(S'engaging'
p717
g190
tp718
I2
s(g418
g282
tp719
I2
s(S'rather'
p720
S'demonstrate'
p721
tp722
I2
s(g713
S'conned'
p723
tp724
I2
s(g79
g55
tp725
I2
s(g504
g98
tp726
I2
s(g115
S'achievement'
p727
tp728
I3
s(S'delicious'
p729
S'crime'
p730
tp731
I2
s(S'winner'
p732
g55
tp733
I2
s(g703
S'history'
p734
tp735
I2
s(g103
S'new'
p736
tp737
I2
s(S'rrb'
p738
g665
tp739
I2
s(S'vision'
p740
S'attention'
p741
tp742
I2
s(S'worth'
p743
S'seeing'
p744
tp745
I2
s(g98
S'lyrical'
p746
tp747
I2
s(S'sweeping'
p748
g78
tp749
I2
s(S'women'
p750
g55
tp751
I2
s(S'stitch'
p752
S'nt'
p753
tp754
I2
s(g32
S'sweet'
p755
tp756
I2
s(S'performance'
p757
g682
tp758
I2
s(S'wonderful'
p759
g417
tp760
I2
s(S'justice'
p761
g86
tp762
I2
s(S'feel'
p763
g577
tp764
I2
s(g548
g357
tp765
I2
s(g40
g428
tp766
I2
s(g237
S'minds'
p767
tp768
I4
s(S'feeling'
p769
g222
tp770
I2
s(S'final'
p771
S'beautiful'
p772
tp773
I2
s(g204
S'painful'
p774
tp775
I2
s(g118
g55
tp776
I6
s(g40
S'capture'
p777
tp778
I2
s(g515
S'mamet'
p779
tp780
I2
s(g40
S'hot'
p781
tp782
I2
s(S'entwined'
p783
g702
tp784
I2
s(S'faithful'
p785
g55
tp786
I2
s(S'frequently'
p787
g217
tp788
I2
s(g40
S'exceptional'
p789
tp790
I2
s(g287
g55
tp791
I2
s(g260
g98
tp792
I2
s(g95
S'directing'
p793
tp794
I2
s(g40
S'far'
p795
tp796
I2
s(S'debut'
p797
g55
tp798
I3
s(S'whimsical'
p799
S'feature'
p800
tp801
I2
s(g196
g73
tp802
I2
s(g40
S'full'
p803
tp804
I2
s(S'thirteen'
p805
g530
tp806
I2
s(S'remarkably'
p807
g785
tp808
I2
s(g581
S'sweet'
p809
tp810
I2
s(S'engaging'
p811
S'oddly'
p812
tp813
I2
s(g74
g55
tp814
I2
s(S'solidly'
p815
S'constructed'
p816
tp817
I2
s(S'nicely'
p818
S'shot'
p819
tp820
I2
s(S'hit'
p821
S'silver'
p822
tp823
I2
s(S'imagination'
p824
S'impressive'
p825
tp826
I2
s(g519
g752
tp827
I2
s(g534
S'demons'
p828
tp829
I2
s(S'hideously'
p830
g105
tp831
I2
s(S'involving'
p832
S'aragorn'
p833
tp834
I2
s(g499
g332
tp835
I2
s(g224
g31
tp836
I2
s(S'genuine'
p837
g574
tp838
I2
s(S'pack'
p839
S'serious'
p840
tp841
I2
s(S'terrific'
p842
S'performance'
p843
tp844
I2
s(S'end'
p845
S'walking'
p846
tp847
I2
s(g646
g55
tp848
I3
s(S'film'
p849
S'charisma'
p850
tp851
I2
s(g666
S'sense'
p852
tp853
I2
s(S'feature'
p854
g161
tp855
I4
s(g663
g55
tp856
I3
s(g736
S'thriller'
p857
tp858
I2
s(S'satisfying'
p859
S'evening'
p860
tp861
I2
s(g40
S'ability'
p862
tp863
I2
s(S'similar'
p864
S'obsessions'
p865
tp866
I2
s(S'embrace'
p867
g750
tp868
I2
s(S'such'
p869
g404
tp870
I2
s(S'provoking'
p871
S'film'
p872
tp873
I2
s(S'more'
p874
g256
tp875
I2
s(S'offers'
p876
S'chills'
p877
tp878
I4
s(g380
S'men'
p879
tp880
I2
s(g40
S'exceptionally'
p881
tp882
I2
s(g40
S'does'
p883
tp884
I4
s(S'cultural'
p885
S'idealism'
p886
tp887
I2
s(g676
S'surprisingly'
p888
tp889
I2
s(g862
S'shock'
p890
tp891
I2
s(S'drama'
p892
g818
tp893
I2
s(S'exceptional'
p894
g113
tp895
I2
s(g819
S'edited'
p896
tp897
I2
s(S'heaven'
p898
g98
tp899
I2
s(S'ranks'
p900
S'original'
p901
tp902
I2
s(g40
S'incredibly'
p903
tp904
I3
s(g98
S'movie'
p905
tp906
I2
s(S'lrb'
p907
g16
tp908
I2
s(g604
S'works'
p909
tp910
I2
s(S'broaches'
p911
S'neo'
p912
tp913
I2
s(g595
g420
tp914
I2
s(g98
S'inventive'
p915
tp916
I2
s(g905
g911
tp917
I2
s(g172
S'had'
p918
tp919
I2
s(S'depth'
p920
g55
tp921
I2
s(g658
g633
tp922
I2
s(g40
S'class'
p923
tp924
I2
s(g251
S'constant'
p925
tp926
I2
s(g865
S'dominate'
p927
tp928
I2
s(S'talent'
p929
g55
tp930
I2
s(S'experience'
p931
g55
tp932
I5
s(g58
S'charm'
p933
tp934
I2
s(g40
g541
tp935
I4
s(S'energetic'
p936
g388
tp937
I2
s(S'rewards'
p938
S'exoticism'
p939
tp940
I2
s(g98
S'documenting'
p941
tp942
I2
s(g402
g318
tp943
I2
s(S'finale'
p944
g55
tp945
I2
s(g772
S'scene'
p946
tp947
I2
s(S'had'
p948
g669
tp949
I2
s(S'best'
p950
S'drumline'
p951
tp952
I2
s(g639
S'losing'
p953
tp954
I2
s(g896
g267
tp955
I2
s(S'fuzzy'
p956
g769
tp957
I2
s(S'man'
p958
g303
tp959
I2
s(g40
S'lively'
p960
tp961
I2
s(g70
g641
tp962
I2
s(g674
g340
tp963
I2
s(g40
S'dramatic'
p964
tp965
I2
s(S'cinematic'
p966
g931
tp967
I2
s(g218
S'sensitive'
p968
tp969
I2
s(S'never'
p970
g81
tp971
I2
s(g850
g55
tp972
I2
s(S'suspense'
p973
g55
tp974
I2
s(S'drama'
p975
S'compassion'
p976
tp977
I2
s(g793
S'world'
p978
tp979
I2
s(S'forster'
p980
S'always'
p981
tp982
I2
s(g200
S'performances'
p983
tp984
I2
s(S'themselves'
p985
g606
tp986
I2
s(g447
g708
tp987
I2
s(g642
S'story'
p988
tp989
I2
s(g846
g527
tp990
I2
s(g471
g748
tp991
I2
s(S'fellowship'
p992
g55
tp993
I2
s(g461
g140
tp994
I2
s(g890
g198
tp995
I2
s(S'movie'
p996
S'portrays'
p997
tp998
I2
s(S'directors'
p999
g55
tp1000
I2
s(g55
g40
tp1001
I359
s(S'awe'
p1002
S'inspiring'
p1003
tp1004
I3
s(S'epic'
p1005
S'astonishing'
p1006
tp1007
I3
s(g40
S'pitch'
p1008
tp1009
I2
s(g40
g610
tp1010
I2
s(g545
g98
tp1011
I2
s(S'warmth'
p1012
S'coldest'
p1013
tp1014
I2
s(g40
S'witty'
p1015
tp1016
I2
s(g901
S'years'
p1017
tp1018
I2
s(g40
g377
tp1019
I2
s(S'aimed'
p1020
S'specifically'
p1021
tp1022
I2
s(g40
g837
tp1023
I2
s(S'face'
p1024
g98
tp1025
I2
s(S'privileged'
p1026
S'moments'
p1027
tp1028
I2
s(g41
S'amusing'
p1029
tp1030
I2
s(S'brilliant'
p1031
S'absurd'
p1032
tp1033
I2
s(g833
g98
tp1034
I2
s(g127
S'expertly'
p1035
tp1036
I2
s(g888
S'romantic'
p1037
tp1038
I2
s(g510
g460
tp1039
I2
s(S'sides'
p1040
S'political'
p1041
tp1042
I2
s(g795
g874
tp1043
I2
s(g565
S'thought'
p1044
tp1045
I2
s(S'comedy'
p1046
g55
tp1047
I7
s(g491
g556
tp1048
I4
s(S'memorable'
p1049
S'performances'
p1050
tp1051
I2
s(S'mike'
p1052
g372
tp1053
I2
s(g38
g975
tp1054
I2
s(S'frailty'
p1055
g876
tp1056
I4
s(g378
g60
tp1057
I2
s(g336
S'comedic'
p1058
tp1059
I2
s(g1003
S'visual'
p1060
tp1061
I2
s(S'breathtakingly'
p1062
S'spectacular'
p1063
tp1064
I2
s(g101
S'sitting'
p1065
tp1066
I4
s(g316
S'laughed'
p1067
tp1068
I2
s(g40
S'dashing'
p1069
tp1070
I2
s(g981
S'hilarious'
p1071
tp1072
I4
s(g753
S'edgy'
p1073
tp1074
I2
s(S'family'
p1075
g55
tp1076
I2
s(S'walls'
p1077
S'might'
p1078
tp1079
I2
s(g40
g805
tp1080
I2
s(S'triumph'
p1081
S'memorable'
p1082
tp1083
I2
s(S'augustinian'
p1084
S'theology'
p1085
tp1086
I2
s(S'great'
p1087
g117
tp1088
I2
s(g575
g306
tp1089
I2
s(g1027
g1049
tp1090
I2
s(g40
S'outstanding'
p1091
tp1092
I2
s(S'effective'
p1093
S'aspects'
p1094
tp1095
I2
s(g452
S'men'
p1096
tp1097
I2
s(g152
g473
tp1098
I2
s(S'much'
p1099
g100
tp1100
I4
s(g915
g999
tp1101
I2
s(g40
S'done'
p1102
tp1103
I2
s(S'film'
p1104
S'watercolor'
p1105
tp1106
I2
s(g40
g13
tp1107
I2
s(g40
S'delivering'
p1108
tp1109
I2
s(S'make'
p1110
g406
tp1111
I2
s(g1094
S'margarita'
p1112
tp1113
I2
s(g1112
g7
tp1114
I2
s(g40
S'remarkable'
p1115
tp1116
I3
s(g1013
S'environment'
p1117
tp1118
I2
s(g886
S'hedonistic'
p1119
tp1120
I2
s(g26
g495
tp1121
I2
s(g17
g738
tp1122
I2
s(g108
S'roll'
p1123
tp1124
I3
s(S'laughter'
p1125
S'until'
p1126
tp1127
I2
s(S'since'
p1128
S'dumbo'
p1129
tp1130
I2
s(S'hugely'
p1131
g689
tp1132
I2
s(S'detail'
p1133
g678
tp1134
I2
s(S'endeavour'
p1135
g55
tp1136
I2
s(g98
S'dreams'
p1137
tp1138
I2
s(g386
S'ending'
p1139
tp1140
I2
s(g40
S'surprising'
p1141
tp1142
I2
s(g481
S'm'
p1143
tp1144
I2
s(g727
g1005
tp1145
I3
s(S'puzzling'
p1146
g650
tp1147
I2
s(S'frenetic'
p1148
g558
tp1149
I2
s(S'great'
p1150
S'american'
p1151
tp1152
I2
s(S'gorgeously'
p1153
g134
tp1154
I2
s(S'bittersweet'
p1155
g652
tp1156
I2
s(g76
g907
tp1157
I2
s(g40
S'inuit'
p1158
tp1159
I2
s(S'liking'
p1160
S'sees'
p1161
tp1162
I2
s(g330
g269
tp1163
I2
s(g696
S'emotional'
p1164
tp1165
I2
s(g746
g1135
tp1166
I2
s(g951
g468
tp1167
I2
s(g40
g948
tp1168
I2
s(g272
g37
tp1169
I2
s(g631
S'appealing'
p1170
tp1171
I2
s(g570
g55
tp1172
I4
s(S'arwen'
p1173
S'better'
p1174
tp1175
I2
s(g206
g1012
tp1176
I2
s(g345
S'love'
p1177
tp1178
I2
s(g40
g498
tp1179
I2
s(S'funny'
p1180
g1146
tp1181
I2
s(S'recreates'
p1182
g126
tp1183
I2
s(g1143
S'night'
p1184
tp1185
I2
s(g159
S'told'
p1186
tp1187
I2
s(g1119
g202
tp1188
I2
s(S'has'
p1189
S'crafted'
p1190
tp1191
I2
s(g1137
g1173
tp1192
I2
s(S'carry'
p1193
g849
tp1194
I2
s(g40
S'imaginative'
p1195
tp1196
I2
s(g40
g449
tp1197
I2
s(g809
g362
tp1198
I2
s(g445
g600
tp1199
I2
s(g593
S'idea'
p1200
tp1201
I2
s(g40
S'extraordinary'
p1202
tp1203
I2
s(g803
g1026
tp1204
I2
s(S'being'
p1205
g54
tp1206
I2
s(S'astonish'
p1207
S'entertain'
p1208
tp1209
I2
s(g883
S'taste'
p1210
tp1211
I2
s(g322
g839
tp1212
I2
s(S'excuse'
p1213
g720
tp1214
I2
s(S'successful'
p1215
g55
tp1216
I2
s(g983
g55
tp1217
I8
s(S'represents'
p1218
S'auspicious'
p1219
tp1220
I2
s(S'hilarious'
p1221
g55
tp1222
I3
s(g1195
g1215
tp1223
I2
s(S'feel'
p1224
g705
tp1225
I2
s(g40
g463
tp1226
I10
s(g598
g55
tp1227
I2
s(g40
g1193
tp1228
I2
s(S'deeply'
p1229
S'humanistic'
p1230
tp1231
I2
s(S'recovery'
p1232
g55
tp1233
I2
s(g399
g55
tp1234
I2
s(S'age'
p1235
g55
tp1236
I2
s(S'fine'
p1237
g457
tp1238
I2
s(g52
g55
tp1239
I2
s(S'poetry'
p1240
g55
tp1241
I2
s(g177
S'more'
p1242
tp1243
I2
s(S'years'
p1244
g55
tp1245
I6
s(S'moving'
p1246
g55
tp1247
I4
s(g29
g55
tp1248
I2
s(g877
g1099
tp1249
I4
s(g1202
g55
tp1250
I2
s(g1219
g854
tp1251
I2
s(S'spectrum'
p1252
g55
tp1253
I2
s(S'discord'
p1254
g761
tp1255
I2
s(S'has'
p1256
g938
tp1257
I2
s(g309
S'breadth'
p1258
tp1259
I2
s(g653
g771
tp1260
I2
s(S'screen'
p1261
g1104
tp1262
I2
s(g40
g842
tp1263
I2
s(g412
g811
tp1264
I2
s(g40
S'once'
p1265
tp1266
I2
s(g40
S'fast'
p1267
tp1268
I2
s(S'animation'
p1269
g821
tp1270
I2
s(S'down'
p1271
S'time'
p1272
tp1273
I2
s(S'wallflower'
p1274
g55
tp1275
I2
s(g370
g1110
tp1276
I2
s(g2
S'movie'
p1277
tp1278
I2
s(S'elegant'
p1279
S'witty'
p1280
tp1281
I2
s(g825
g517
tp1282
I3
s(g40
S'draw'
p1283
tp1284
I2
s(S'ride'
p1285
g55
tp1286
I3
s(g280
S'crumb'
p1287
tp1288
I2
s(S'shyamalan'
p1289
g311
tp1290
I2
s(S'impulses'
p1291
S'grew'
p1292
tp1293
I2
s(S'amazingly'
p1294
g120
tp1295
I2
s(g755
g1155
tp1296
I2
s(S'captivating'
p1297
S'insanely'
p1298
tp1299
I3
s(g40
S'must'
p1300
tp1301
I2
s(S'piercing'
p1302
S'intellect'
p1303
tp1304
I2
s(S'god'
p1305
S'stuck'
p1306
tp1307
I2
s(g741
g583
tp1308
I2
s(g852
g366
tp1309
I2
s(g1037
g1285
tp1310
I2
s(g40
g1062
tp1311
I2
s(g939
g589
tp1312
I2
s(g586
g1081
tp1313
I2
s(g257
g608
tp1314
I2
s(S'examination'
p1315
g864
tp1316
I2
s(g1303
g55
tp1317
I2
s(g1177
g55
tp1318
I2
s(g338
g286
tp1319
I2
s(g270
g308
tp1320
I2
s(g1186
g422
tp1321
I2
s(g1078
S'otherwise'
p1322
tp1323
I2
s(g1300
g1040
tp1324
I2
s(g40
g729
tp1325
I2
s(g860
g484
tp1326
I2
s(g40
S'raunchy'
p1327
tp1328
I2
s(g1065
g490
tp1329
I4
s(g1082
g966
tp1330
I2
s(g1158
g88
tp1331
I2
s(g40
g684
tp1332
I2
s(g64
g692
tp1333
I2
s(S'sincere'
p1334
g996
tp1335
I2
s(g1174
g992
tp1336
I2
s(S'summer'
p1337
S'movies'
p1338
tp1339
I2
s(S'find'
p1340
g69
tp1341
I2
s(S'movie'
p1342
g55
tp1343
I7
s(g506
S'story'
p1344
tp1345
I2
s(S'director'
p1346
g398
tp1347
I2
s(g625
g22
tp1348
I2
s(g1322
S'separate'
p1349
tp1350
I2
s(g98
g807
tp1351
I2
s(g40
g1153
tp1352
I2
s(S'surprising'
p1353
S'emotional'
p1354
tp1355
I2
s(g40
g1093
tp1356
I2
s(g590
g470
tp1357
I2
s(g98
g950
tp1358
I2
s(g730
S'drama'
p1359
tp1360
I3
s(g1105
S'background'
p1361
tp1362
I2
s(g162
g55
tp1363
I2
s(S'across'
p1364
g1077
tp1365
I2
s(g923
S'natural'
p1366
tp1367
I2
s(g670
g171
tp1368
I2
s(S'perfect'
p1369
g757
tp1370
I2
s(S'certainly'
p1371
g900
tp1372
I2
s(S'foreign'
p1373
S'film'
p1374
tp1375
I2
s(g539
g622
tp1376
I2
s(S'seeing'
p1377
g425
tp1378
I2
s(g1008
S'perfect'
p1379
tp1380
I2
s(S'dramatic'
p1381
S'slap'
p1382
tp1383
I2
s(g903
g1297
tp1384
I3
s(g881
g619
tp1385
I2
s(g997
g695
tp1386
I2
s(g723
S'right'
p1387
tp1388
I2
s(g40
g1271
tp1389
I2
s(S'characters'
p1390
S'believable'
p1391
tp1392
I2
s(g429
S'minutes'
p1393
tp1394
I2
s(g8
g1218
tp1395
I2
s(g275
S'human'
p1396
tp1397
I2
s(g536
S'breathtaking'
p1398
tp1399
I2
s(g1129
g1371
tp1400
I2
s(g1208
g55
tp1401
I2
s(g1361
g1128
tp1402
I2
s(g1161
g55
tp1403
I2
s(g265
g958
tp1404
I2
s(g988
g845
tp1405
I2
s(g1073
S'piece'
p1406
tp1407
I2
s(S'big'
p1408
g1337
tp1409
I2
s(g568
S'missing'
p1410
tp1411
I2
s(g925
S'fits'
p1412
tp1413
I2
s(g98
S'period'
p1414
tp1415
I2
s(g40
g1055
tp1416
I2
s(g40
g185
tp1417
I2
s(g1091
g1346
tp1418
I2
s(S'film'
p1419
g231
tp1420
I2
s(g601
S'suggesting'
p1421
tp1422
I2
s(g40
g662
tp1423
I2
s(S'infidelity'
p1424
g892
tp1425
I2
s(g648
g1213
tp1426
I2
s(g1060
g1240
tp1427
I2
s(g40
S're'
p1428
tp1429
I2
s(g98
g562
tp1430
I2
s(g1379
g980
tp1431
I2
s(g40
g208
tp1432
I5
s(g61
g55
tp1433
I2
s(g822
g1261
tp1434
I2
s(g700
g715
tp1435
I2
s(g325
S'hookers'
p1436
tp1437
I2
s(g1102
g1237
tp1438
I2
s(g229
S'vivid'
p1439
tp1440
I2
s(S'refreshing'
p1441
g55
tp1442
I2
s(g98
g487
tp1443
I2
s(S'oscar'
p1444
g55
tp1445
I2
s(S'sometimes'
p1446
g894
tp1447
I2
s(g132
S'charles'
p1448
tp1449
I2
s(S'gods'
p1450
g55
tp1451
I2
s(g1164
g1232
tp1452
I2
s(S'comfort'
p1453
g55
tp1454
I2
s(g1029
g55
tp1455
I2
s(g111
g710
tp1456
I2
s(g721
g274
tp1457
I2
s(g409
g48
tp1458
I4
s(g946
S'finally'
p1459
tp1460
I2
s(g450
g869
tp1461
I2
s(g960
S'engaging'
p1462
tp1463
I2
s(g968
S'cultivated'
p1464
tp1465
I2
s(g355
S'documentary'
p1466
tp1467
I2
s(g1126
g1340
tp1468
I2
s(g1032
g297
tp1469
I2
s(S'may'
p1470
g434
tp1471
I2
s(S'spirit'
p1472
S'game'
p1473
tp1474
I2
s(S'grandparents'
p1475
g970
tp1476
I2
s(g812
g1246
tp1477
I2
s(g927
g1075
tp1478
I2
s(g1267
g1148
tp1479
I2
s(g1210
g327
tp1480
I2
s(S'spy'
p1481
S'thriller'
p1482
tp1483
I2
s(g672
g1294
tp1484
I2
s(g711
g437
tp1485
I2
s(g1069
g660
tp1486
I2
s(g148
S'much'
p1487
tp1488
I2
s(g1071
S'meara'
p1489
tp1490
I2
s(g1141
g732
tp1491
I2
s(g304
g644
tp1492
I3
s(S'each'
p1493
g1377
tp1494
I2
s(g816
S'entertaining'
p1495
tp1496
I2
s(g1298
S'funny'
p1497
tp1498
I3
s(g358
g55
tp1499
I2
s(g734
g1493
tp1500
I2
s(g1459
g1224
tp1501
I2
s(g67
g885
tp1502
I2
s(g246
g1235
tp1503
I2
s(g181
g55
tp1504
I2
s(g781
S'chick'
p1505
tp1506
I2
s(g1439
g824
tp1507
I2
s(g1374
g1444
tp1508
I2
s(g1058
g277
tp1509
I2
s(g375
g1342
tp1510
I2
s(g40
g1131
tp1511
I3
s(S'consistently'
p1512
g262
tp1513
I2
s(S'disney'
p1514
g1269
tp1515
I2
s(S'exterior'
p1516
g242
tp1517
I2
s(g744
g55
tp1518
I2
s(S'pieces'
p1519
g147
tp1520
I2
s(g1436
g985
tp1521
I2
s(g143
S'performances'
p1522
tp1523
I2
s(g40
g763
tp1524
I2
s(g1366
S'acting'
p1525
tp1526
I2
s(g1482
g55
tp1527
I7
s(g40
S'might'
p1528
tp1529
I2
s(g1359
g514
tp1530
I2
s(S'within'
p1531
g1274
tp1532
I2
s(g35
g1229
tp1533
I2
s(g1306
g898
tp1534
I2
s(g40
g603
tp1535
I2
s(g214
g1516
tp1536
I2
s(g493
g478
tp1537
I2
s(g1085
g1305
tp1538
I2
s(g1108
g1381
tp1539
I2
s(S'without'
p1540
g547
tp1541
I2
s(g1258
g740
tp1542
I2
s(S'somewhat'
p1543
S'touched'
p1544
tp1545
I2
s(S'warm'
p1546
g956
tp1547
I2
s(g333
g567
tp1548
I2
s(g1487
g743
tp1549
I2
s(g655
g55
tp1550
I2
s(g584
g94
tp1551
I2
s(g1272
g1087
tp1552
I2
s(S'cast'
p1553
g55
tp1554
I2
s(g1396
g1291
tp1555
I2
s(g912
g1084
tp1556
I2
s(g1505
g45
tp1557
I2
s(S'hearts'
p1558
S'many'
p1559
tp1560
I4
s(g98
S'dry'
p1561
tp1562
I2
s(g40
g129
tp1563
I6
s(g1414
g1519
tp1564
I2
s(S't'
p1565
g55
tp1566
I2
s(g1063
g55
tp1567
I2
s(g40
g1207
tp1568
I2
s(g1421
S'fourth'
p1569
tp1570
I2
s(g1151
S'adventure'
p1571
tp1572
I2
s(g706
g55
tp1573
I2
s(g1327
g787
tp1574
I2
s(S'people'
p1575
S'together'
p1576
tp1577
I2
s(g1200
g55
tp1578
I2
s(g23
g55
tp1579
I3
s(S'admirable'
p1580
g1446
tp1581
I2
s(g559
g1020
tp1582
I2
s(g1448
g137
tp1583
I2
s(g40
g859
tp1584
I2
s(g629
S'vulgar'
p1585
tp1586
I2
s(g1489
g156
tp1587
I2
s(g1406
g1514
tp1588
I2
s(g1230
g259
tp1589
I2
s(g918
g1408
tp1590
I2
s(g40
g832
tp1591
I2
s(g383
g1254
tp1592
I2
s(S'white'
p1593
g98
tp1594
I2
s(g1410
g476
tp1595
I2
s(g1462
g1315
tp1596
I2
s(g40
g174
tp1597
I3
s(S'movie'
p1598
g1450
tp1599
I2
s(g1117
g279
tp1600
I2
s(g166
g98
tp1601
I2
s(g352
g165
tp1602
I2
s(g1170
g66
tp1603
I2
s(g779
g55
tp1604
I2
s(g551
g1373
tp1605
I2
s(g1265
g454
tp1606
I2
s(g637
g783
tp1607
I2
s(g1571
g759
tp1608
I2
s(g1283
g1575
tp1609
I2
s(g879
g636
tp1610
I2
s(g976
g344
tp1611
I2
s(g249
g597
tp1612
I2
s(g502
g55
tp1613
I4
s(g634
g55
tp1614
I8
s(g389
g84
tp1615
I2
s(g40
g1424
tp1616
I2
s(g1096
g867
tp1617
I2
s(g774
g1441
tp1618
I2
s(g1398
g1002
tp1619
I2
s(g528
g1543
tp1620
I2
s(g933
g1302
tp1621
I2
s(g953
S'machismo'
p1622
tp1623
I2
s(S'emotional'
p1624
g1453
tp1625
I2
s(g1525
g369
tp1626
I2
s(g1041
g1252
tp1627
I2
s(g1544
g55
tp1628
I2
s(g1561
g245
tp1629
I2
s(g373
g289
tp1630
I2
s(g191
S'british'
p1631
tp1632
I2
s(g1115
g1419
tp1633
I2
s(g1464
g123
tp1634
I2
s(g840
g973
tp1635
I2
s(g1349
g1580
tp1636
I2
s(g1139
g1546
tp1637
I2
s(g1576
g1364
tp1638
I2
s(S'brilliant'
p1639
S'motion'
p1640
tp1641
I2
s(g426
g1160
tp1642
I2
s(g349
g1369
tp1643
I2
s(g1035
g55
tp1644
I2
s(g40
S'beautiful'
p1645
tp1646
I2
s(g14
g1598
tp1647
I2
s(S'thoroughly'
p1648
g717
tp1649
I2
s(g1495
S'thriller'
p1650
tp1651
I2
s(g1382
g1024
tp1652
I2
s(S'playful'
p1653
g1472
tp1654
I2
s(S'moving'
p1655
g432
tp1656
I2
s(g40
g815
tp1657
I2
s(g312
g509
tp1658
I2
s(g1277
S'years'
p1659
tp1660
I2
s(g40
g354
tp1661
I2
s(g828
g1531
tp1662
I2
s(g512
g98
tp1663
I2
s(g1569
S'feature'
p1664
tp1665
I2
s(g1354
g920
tp1666
I2
s(g572
g314
tp1667
I2
s(g1585
g55
tp1668
I2
s(g82
g1205
tp1669
I2
s(g909
g1540
tp1670
I2
s(g342
g1334
tp1671
I2
s(g1287
g1624
tp1672
I2
s(g978
g55
tp1673
I2
s(g40
g615
tp1674
I5
s(g157
g1052
tp1675
I2
s(g1021
g4
tp1676
I2
s(g1640
g364
tp1677
I3
s(S'hollywood'
p1678
g1189
tp1679
I2
s(g1123
g385
tp1680
I2
s(g1412
g1125
tp1681
I2
s(g1559
g55
tp1682
I4
s(g767
g1558
tp1683
I4
s(g611
g1279
tp1684
I2
s(g1473
g1553
tp1685
I2
s(g1631
g1046
tp1686
I2
s(g1393
g55
tp1687
I2
s(g1622
g55
tp1688
I2
s(g1015
g799
tp1689
I2
s(g464
g592
tp1690
I2
s(g1044
g871
tp1691
I2
s(g685
g1475
tp1692
I2
s(g438
g1470
tp1693
I2
s(g415
g1639
tp1694
I2
s(g1528
g335
tp1695
I2
s(g542
g55
tp1696
I2
s(g1067
S'hard'
p1697
tp1698
I2
s(g92
g55
tp1699
I2
s(g40
g1648
tp1700
I2
s(g1387
g944
tp1701
I2
s(g458
g1593
tp1702
I2
s(g1280
g213
tp1703
I2
s(g941
g55
tp1704
I2
s(g1292
g830
tp1705
I2
s(g211
g168
tp1706
I2
s(g319
g55
tp1707
I2
s(g1184
g1289
tp1708
I2
s(g49
g501
tp1709
I4
s(g299
g1655
tp1710
I2
s(g367
g1653
tp1711
I2
s(g680
g1481
tp1712
I2
s(g579
g55
tp1713
I2
s(g496
g1182
tp1714
I2
s(g789
S'thriller'
p1715
tp1716
I2
s(g1242
g1133
tp1717
I2
s(g857
g480
tp1718
I2
s(g1697
g1244
tp1719
I2
s(g1344
g97
tp1720
I2
s.