(dp0
(S'funniest'
p1
S'likeable'
p2
tp3
I2
s(S'grade'
p4
S'school'
p5
tp6
I2
s(S'happy'
p7
S'hour'
p8
tp9
I2
s(S'movie'
p10
S'experience'
p11
tp12
I3
s(S'handed'
p13
S'down'
p14
tp15
I2
s(S'pitfalls'
p16
S'incoherence'
p17
tp18
I3
s(S'namesake'
p19
S'proud'
p20
tp21
I2
s(g14
S'movie'
p22
tp23
I2
s(S'gorgeous'
p24
S'visuals'
p25
tp26
I2
s(S'beautifully'
p27
S'crafted'
p28
tp29
I2
s(S'delightfully'
p30
S'charming'
p31
tp32
I2
s(S'has'
p33
S'turned'
p34
tp35
I2
s(S'project'
p36
S'#'
p37
tp38
I2
s(S'crawl'
p39
S'own'
p40
tp41
I2
s(S'intense'
p42
S'indoor'
p43
tp44
I2
s(S'*'
p45
S'flat'
p46
tp47
I3
s(g45
S'impeccable'
p48
tp49
I2
s(S'pretty'
p50
S'damned'
p51
tp52
I2
s(S'creepy'
p53
S'stories'
p54
tp55
I4
s(S'known'
p56
S'creation'
p57
tp58
I2
s(S'bored'
p59
g37
tp60
I2
s(S'witch'
p61
g36
tp62
I2
s(S'harrowing'
p63
S'uplifting'
p64
tp65
I2
s(S'family'
p66
S'fundamentals'
p67
tp68
I2
s(S'blend'
p69
S'counter'
p70
tp71
I2
s(S'ourselves'
p72
S'surprised'
p73
tp74
I2
s(S'sun'
p75
S'good'
p76
tp77
I3
s(g45
S'goes'
p78
tp79
I2
s(g45
g27
tp80
I2
s(S'snappy'
p81
S'dialogue'
p82
tp83
I2
s(g45
S'capture'
p84
tp85
I2
s(S'battle'
p86
S'scenes'
p87
tp88
I2
s(S'worry'
p89
S'anyone'
p90
tp91
I2
s(S'performance'
p92
g37
tp93
I4
s(S'unfolds'
p94
g37
tp95
I2
s(S'masterpiece'
p96
S'goosebumps'
p97
tp98
I2
s(S'base'
p99
S'melodrama'
p100
tp101
I2
s(S'upper'
p102
S'echelons'
p103
tp104
I2
s(S'line'
p105
S's'
p106
tp107
I2
s(S'like'
p108
S'those'
p109
tp110
I4
s(g45
S'dialogue'
p111
tp112
I2
s(g45
S'footage'
p113
tp114
I2
s(S'idea'
p115
S'narrative'
p116
tp117
I2
s(S'twisted'
p118
g37
tp119
I2
s(S'impossible'
p120
S'care'
p121
tp122
I2
s(S'long'
p123
S'end'
p124
tp125
I2
s(S'film'
p126
g37
tp127
I10
s(S'fascinating'
p128
S'profile'
p129
tp130
I2
s(S'slickest'
p131
S'mamet'
p132
tp133
I2
s(S'apocalypse'
p134
S'movies'
p135
tp136
I2
s(S'evocative'
p137
S'film'
p138
tp139
I2
s(S'creeps'
p140
S'revolution'
p141
tp142
I2
s(S'atmosphere'
p143
S'crime'
p144
tp145
I2
s(S'great'
p146
S'films'
p147
tp148
I2
s(S'four'
p149
S'fine'
p150
tp151
I2
s(g45
S'director'
p152
tp153
I2
s(S'hip'
p154
S'hop'
p155
tp156
I2
s(S'strange'
p157
S'movie'
p158
tp159
I2
s(S'stone'
p160
S'iii'
p161
tp162
I2
s(S'shudder'
p163
S'tremble'
p164
tp165
I2
s(g45
S'splendid'
p166
tp167
I2
s(S'brilliant'
p168
S'absurd'
p169
tp170
I2
s(g45
S'deliver'
p171
tp172
I2
s(S'still'
p173
S'very'
p174
tp175
I2
s(S'stuff'
p176
g37
tp177
I2
s(S'latter'
p178
g106
tp179
I2
s(g106
S'witnessed'
p180
tp181
I2
s(g45
S'luminous'
p182
tp183
I2
s(S'complete'
p184
S'soothing'
p185
tp186
I3
s(S'slapdash'
p187
S'sequel'
p188
tp189
I2
s(S'like'
p190
S'being'
p191
tp192
I2
s(g45
S'put'
p193
tp194
I2
s(S'levy'
p195
S'like'
p196
tp197
I2
s(g45
S'forcefully'
p198
tp199
I2
s(S'debut'
p200
S'chaiken'
p201
tp202
I2
s(S'greene'
p203
g106
tp204
I2
s(S'time'
p205
g37
tp206
I2
s(S'predictable'
p207
S'narrative'
p208
tp209
I3
s(S'pleasing'
p210
S'best'
p211
tp212
I2
s(g45
S'exceptional'
p213
tp214
I2
s(S'intelligent'
p215
S'deeply'
p216
tp217
I2
s(g161
S'applies'
p218
tp219
I2
s(g45
S'always'
p220
tp221
I2
s(g211
S'moments'
p222
tp223
I2
s(S'production'
p224
S'values'
p225
tp226
I2
s(S'energy'
p227
g106
tp228
I2
s(S'summer'
p229
g106
tp230
I2
s(S'gorgeously'
p231
g157
tp232
I2
s(S'charmer'
p233
g37
tp234
I2
s(S'original'
p235
S'frailty'
p236
tp237
I2
s(S'surprisingly'
p238
S'touching'
p239
tp240
I2
s(S'creates'
p241
S'portrait'
p242
tp243
I2
s(g45
S'humor'
p244
tp245
I2
s(g106
S'dry'
p246
tp247
I2
s(S'little'
p248
S'puddle'
p249
tp250
I2
s(S'new'
p251
S'age'
p252
tp253
I2
s(S'goes'
p254
S'nowhere'
p255
tp256
I2
s(S'studios'
p257
S'imagine'
p258
tp259
I2
s(g45
S'brilliant'
p260
tp261
I4
s(S'creativity'
p262
g37
tp263
I2
s(g45
S'feels'
p264
tp265
I3
s(g106
S'simultaneously'
p266
tp267
I2
s(g45
S'spider'
p268
tp269
I2
s(S'margarita'
p270
g7
tp271
I2
s(S'piece'
p272
S'crap'
p273
tp274
I2
s(S'worse'
p275
S'stunt'
p276
tp277
I2
s(S'beneath'
p278
S'prim'
p279
tp280
I2
s(S'keeps'
p281
S'being'
p282
tp283
I2
s(S'poorly'
p284
S'paced'
p285
tp286
I3
s(g45
g30
tp287
I2
s(S'hilarious'
p288
S'follow'
p289
tp290
I2
s(S'debut'
p291
g37
tp292
I3
s(S'prevails'
p293
g37
tp294
I2
s(S'sit'
p295
S'through'
p296
tp297
I5
s(S'comic'
p298
S'timing'
p299
tp300
I2
s(g48
g298
tp301
I2
s(g45
S'demonstrates'
p302
tp303
I2
s(S'tang'
p304
S'between'
p305
tp306
I3
s(S'explores'
p307
S'monster'
p308
tp309
I2
s(g45
S'tale'
p310
tp311
I2
s(S'remarkably'
p312
g235
tp313
I2
s(g45
S'movie'
p314
tp315
I6
s(S'story'
p316
S'capture'
p317
tp318
I2
s(S'spirited'
p319
S'imaginative'
p320
tp321
I2
s(S'unabashedly'
p322
S'romantic'
p323
tp324
I2
s(S'wit'
p325
g251
tp326
I2
s(S'standout'
p327
S'performance'
p328
tp329
I2
s(g45
S'engages'
p330
tp331
I2
s(S'family'
p332
S'comedy'
p333
tp334
I2
s(S'entertaining'
p335
S'had'
p336
tp337
I2
s(S'artist'
p338
S'spite'
p339
tp340
I2
s(g299
S'raffish'
p341
tp342
I2
s(S'clever'
p343
S'suspenseful'
p344
tp345
I3
s(S'fit'
p346
S'pootie'
p347
tp348
I3
s(S'features'
p349
g327
tp350
I2
s(S'chief'
p351
S'film'
p352
tp353
I2
s(S'broiling'
p354
g75
tp355
I3
s(S'reckless'
p356
S'squandering'
p357
tp358
I2
s(g45
S'builds'
p359
tp360
I2
s(S'pathology'
p361
S'evolved'
p362
tp363
I2
s(S'bliss'
p364
g37
tp365
I2
s(S'makes'
p366
S'each'
p367
tp368
I2
s(S'imax'
p369
g37
tp370
I2
s(S'remarkably'
p371
S'faithful'
p372
tp373
I2
s(S'almost'
p374
S'every'
p375
tp376
I2
s(g106
S'rushed'
p377
tp378
I2
s(S'beautifully'
p379
S'made'
p380
tp381
I2
s(S'doing'
p382
g19
tp383
I2
s(S'romantic'
p384
S'comedy'
p385
tp386
I3
s(g45
S'telling'
p387
tp388
I2
s(g45
g106
tp389
I25
s(S'collection'
p390
g37
tp391
I2
s(g45
S'powerful'
p392
tp393
I2
s(g347
g304
tp394
I3
s(S'ingenuity'
p395
g37
tp396
I2
s(S'certainly'
p397
S'delivers'
p398
tp399
I2
s(S'heart'
p400
g37
tp401
I2
s(S'not'
p402
S'rival'
p403
tp404
I2
s(S'weave'
p405
S'eerie'
p406
tp407
I2
s(S'viewers'
p408
S'guessing'
p409
tp410
I2
s(g45
S'story'
p411
tp412
I2
s(S'gem'
p413
g37
tp414
I2
s(g398
S'goods'
p415
tp416
I3
s(S'pedigree'
p417
S'date'
p418
tp419
I2
s(S'pointless'
p420
g37
tp421
I2
s(S'knew'
p422
S'existed'
p423
tp424
I2
s(S'seas'
p425
S'sand'
p426
tp427
I2
s(S'nonexistent'
p428
S'ideas'
p429
tp430
I2
s(g45
S'll'
p431
tp432
I2
s(S'film'
p433
S'does'
p434
tp435
I2
s(S'grim'
p436
S'portrait'
p437
tp438
I2
s(S'burning'
p439
S'man'
p440
tp441
I2
s(g45
S'commander'
p442
tp443
I2
s(S'male'
p444
S'persona'
p445
tp446
I2
s(S'add'
p447
S'slice'
p448
tp449
I2
s(S'subzero'
p450
S'version'
p451
tp452
I2
s(S'test'
p453
S'intellectual'
p454
tp455
I2
s(S'exploration'
p456
g37
tp457
I2
s(S'close'
p458
S'losing'
p459
tp460
I2
s(g45
S'uncommonly'
p461
tp462
I2
s(S'sacrifice'
p463
S'christian'
p464
tp465
I2
s(g45
S'engrossing'
p466
tp467
I2
s(g45
S'delivers'
p468
tp469
I2
s(g357
g149
tp470
I2
s(S'sobering'
p471
S'powerful'
p472
tp473
I2
s(S'scenes'
p474
S'cussing'
p475
tp476
I2
s(S'editing'
p477
S'cheaper'
p478
tp479
I2
s(g106
S'pleasurable'
p480
tp481
I2
s(g106
S'barely'
p482
tp483
I2
s(S'foreign'
p484
S'film'
p485
tp486
I2
s(S'little'
p487
S'girl'
p488
tp489
I2
s(S'picture'
p490
g37
tp491
I3
s(S'material'
p492
g37
tp493
I3
s(S'made'
p494
S'someone'
p495
tp496
I2
s(S'boring'
p497
S'obvious'
p498
tp499
I2
s(S'real'
p500
S'americans'
p501
tp502
I2
s(g188
S'sake'
p503
tp504
I2
s(S'film'
p505
S'through'
p506
tp507
I3
s(g45
S'interesting'
p508
tp509
I3
s(S'proves'
p510
S'simultaneously'
p511
tp512
I2
s(S'inc'
p513
S'without'
p514
tp515
I2
s(g45
S'pitiful'
p516
tp517
I2
s(S'more'
p518
S'detail'
p519
tp520
I2
s(S'dentist'
p521
g106
tp522
I3
s(S'harvard'
p523
S'horrible'
p524
tp525
I3
s(S'across'
p526
S'pat'
p527
tp528
I2
s(S'always'
p529
S'surprising'
p530
tp531
I2
s(S'stooping'
p532
g99
tp533
I2
s(S'indescribably'
p534
S'bad'
p535
tp536
I3
s(S'summer'
p537
g37
tp538
I2
s(g344
g37
tp539
I3
s(S'has'
p540
S'been'
p541
tp542
I2
s(g76
S'three'
p543
tp544
I3
s(g216
g37
tp545
I3
s(S'bruce'
p546
S'mcculloch'
p547
tp548
I2
s(S'punny'
p549
S'aimed'
p550
tp551
I2
s(S'life'
p552
S'never'
p553
tp554
I2
s(S'engrossing'
p555
g316
tp556
I2
s(S'conned'
p557
S'right'
p558
tp559
I2
s(S'midnight'
p560
S'telling'
p561
tp562
I4
s(S'ambiguous'
p563
S'enough'
p564
tp565
I2
s(S'has'
p566
S'created'
p567
tp568
I2
s(S'film'
p569
S'bring'
p570
tp571
I2
s(S'fascinating'
p572
g37
tp573
I2
s(S'clams'
p574
S'left'
p575
tp576
I3
s(S'himself'
p577
S'neither'
p578
tp579
I2
s(S'bad'
p580
S'operative'
p581
tp582
I2
s(g323
g37
tp583
I2
s(S'without'
p584
g532
tp585
I2
s(S'phenomenal'
p586
S'band'
p587
tp588
I2
s(S'bigelow'
p589
S'demonstrates'
p590
tp591
I2
s(S'unrewarding'
p592
g356
tp593
I2
s(S'deception'
p594
S'while'
p595
tp596
I2
s(S'great'
p597
S'film'
p598
tp599
I2
s(g308
g106
tp600
I2
s(S'does'
p601
S'rain'
p602
tp603
I2
s(S'film'
p604
S'celluloid'
p605
tp606
I2
s(S'covers'
p607
S'territory'
p608
tp609
I2
s(S'directors'
p610
g37
tp611
I2
s(S'commands'
p612
S'interest'
p613
tp614
I2
s(S'meaningless'
p615
S'vapid'
p616
tp617
I3
s(S'very'
p618
S'bad'
p619
tp620
I2
s(S'female'
p621
S'friendship'
p622
tp623
I2
s(S'thirteen'
p624
S'conversations'
p625
tp626
I2
s(S'job'
p627
S'updating'
p628
tp629
I2
s(S'assault'
p630
S'embarrassingly'
p631
tp632
I2
s(S'visceral'
p633
S'spiritual'
p634
tp635
I2
s(g45
S'fascinating'
p636
tp637
I5
s(S'energy'
p638
g37
tp639
I3
s(S'fierce'
p640
S'grandeur'
p641
tp642
I2
s(S'long'
p643
g37
tp644
I2
s(S'remains'
p645
S'surprisingly'
p646
tp647
I2
s(S'beat'
p648
g37
tp649
I2
s(S'tale'
p650
S'love'
p651
tp652
I2
s(S'proves'
p653
S'director'
p654
tp655
I2
s(S'gibson'
p656
S'gasp'
p657
tp658
I2
s(g503
S'sequel'
p659
tp660
I2
s(g466
g436
tp661
I2
s(S'multiplex'
p662
g37
tp663
I2
s(g45
g312
tp664
I2
s(S'psychology'
p665
S'not'
p666
tp667
I2
s(S'around'
p668
S'campfire'
p669
tp670
I4
s(S'conformity'
p671
g37
tp672
I2
s(g97
S'uncanny'
p673
tp674
I2
s(S'music'
p675
S'documentary'
p676
tp677
I2
s(S'glides'
p678
S'gracefully'
p679
tp680
I2
s(S'each'
p681
S'willies'
p682
tp683
I4
s(S'bittersweet'
p684
S'contemporary'
p685
tp686
I2
s(S'gets'
p687
S'riled'
p688
tp689
I2
s(S'within'
p690
S'wallflower'
p691
tp692
I2
s(g45
g241
tp693
I2
s(S'rock'
p694
S'concert'
p695
tp696
I2
s(g403
S'filmmaker'
p697
tp698
I2
s(S'par'
p699
g131
tp700
I2
s(S'successful'
p701
g37
tp702
I2
s(g45
S'lilo'
p703
tp704
I2
s(g480
S'movies'
p705
tp706
I2
s(S'otherwise'
p707
S'separate'
p708
tp709
I2
s(g45
S'time'
p710
tp711
I2
s(S'three'
p712
S'decades'
p713
tp714
I2
s(S'made'
p715
S'movie'
p716
tp717
I2
s(S'not'
p718
S'satisfied'
p719
tp720
I2
s(g625
S'thing'
p721
tp722
I2
s(S'innocence'
p723
S'budding'
p724
tp725
I2
s(S'acting'
p726
S'talents'
p727
tp728
I2
s(g45
S'had'
p729
tp730
I2
s(S'great'
p731
S'fun'
p732
tp733
I2
s(S'plot'
p734
g37
tp735
I3
s(S'lunch'
p736
g37
tp737
I3
s(S'vulgarity'
p738
S'sex'
p739
tp740
I2
s(S'film'
p741
S'charisma'
p742
tp743
I2
s(S'nomination'
p744
S'best'
p745
tp746
I2
s(S'structured'
p747
g505
tp748
I3
s(S'never'
p749
S'forget'
p750
tp751
I2
s(g745
g484
tp752
I2
s(S'around'
p753
g560
tp754
I4
s(g451
S'monsters'
p755
tp756
I2
s(g45
g744
tp757
I2
s(S'afraid'
p758
S'best'
p759
tp760
I2
s(S'ca'
p761
S'nt'
p762
tp763
I3
s(S'fellowship'
p764
g37
tp765
I2
s(g51
S'funny'
p766
tp767
I2
s(g721
S'small'
p768
tp769
I2
s(S'garbage'
p770
g37
tp771
I2
s(S'blair'
p772
g61
tp773
I2
s(S'telling'
p774
g37
tp775
I2
s(S'good'
p776
g332
tp777
I2
s(g713
S'ago'
p778
tp779
I2
s(g387
S'heart'
p780
tp781
I2
s(S'detail'
p782
S'propels'
p783
tp784
I2
s(g273
S'again'
p785
tp786
I2
s(g45
S'masterpiece'
p787
tp788
I2
s(g138
g712
tp789
I2
s(S'here'
p790
S'load'
p791
tp792
I2
s(S'cast'
p793
S'great'
p794
tp795
I2
s(S'days'
p796
g37
tp797
I3
s(S'treatment'
p798
g203
tp799
I2
s(g45
S'chilling'
p800
tp801
I2
s(S'diane'
p802
S'lane'
p803
tp804
I2
s(S'wit'
p805
S'originality'
p806
tp807
I2
s(S'college'
p808
S'story'
p809
tp810
I2
s(g454
S'emotional'
p811
tp812
I2
s(S'admire'
p813
g37
tp814
I2
s(S'clients'
p815
g37
tp816
I2
s(g185
S'muzak'
p817
tp818
I3
s(S'anything'
p819
g37
tp820
I2
s(S'expected'
p821
g37
tp822
I2
s(S'lovely'
p823
S'film'
p824
tp825
I2
s(g305
S'punchlines'
p826
tp827
I3
s(S'kind'
p828
g227
tp829
I2
s(S'highly'
p830
g319
tp831
I2
s(g636
S'documentary'
p832
tp833
I2
s(S'acted'
p834
g37
tp835
I3
s(S'busy'
p836
S'contriving'
p837
tp838
I2
s(S'full'
p839
g828
tp840
I2
s(S'solely'
p841
S'exercise'
p842
tp843
I2
s(g631
S'ham'
p844
tp845
I2
s(g575
g354
tp846
I3
s(g45
S'more'
p847
tp848
I2
s(g45
S'penetrating'
p849
tp850
I2
s(S'grand'
p851
S'failure'
p852
tp853
I3
s(g634
S'wonderfully'
p854
tp855
I2
s(g440
S'ethos'
p856
tp857
I2
s(S'cooly'
p858
S'unsettling'
p859
tp860
I2
s(S'conflict'
p861
S'inextricably'
p862
tp863
I2
s(S'boring'
p864
S'before'
p865
tp866
I2
s(S'false'
p867
S'sitcom'
p868
tp869
I2
s(S'lrb'
p870
S'sometimes'
p871
tp872
I2
s(g164
S'without'
p873
tp874
I2
s(S'much'
p875
S'care'
p876
tp877
I2
s(S'wretchedly'
p878
S'unfunny'
p879
tp880
I2
s(S'performances'
p881
S'throughout'
p882
tp883
I2
s(g666
S'order'
p884
tp885
I2
s(S'movie'
p886
g563
tp887
I2
s(S'tears'
p888
S'during'
p889
tp890
I2
s(g106
g37
tp891
I2
s(g20
g37
tp892
I2
s(g45
S'good'
p893
tp894
I5
s(S'tell'
p895
S'tedious'
p896
tp897
I2
s(S'absorbing'
p898
S'outing'
p899
tp900
I2
s(S'emotionally'
p901
S'satisfying'
p902
tp903
I2
s(g619
S'scouse'
p904
tp905
I2
s(S'spell'
p906
S'mel'
p907
tp908
I2
s(g45
g684
tp909
I2
s(S'more'
p910
S'fun'
p911
tp912
I2
s(S'resolutely'
p913
S'unamusing'
p914
tp915
I3
s(g182
S'interviews'
p916
tp917
I2
s(g849
S'potent'
p918
tp919
I2
s(g695
g37
tp920
I2
s(g171
S'riveting'
p921
tp922
I2
s(g409
g106
tp923
I2
s(S'film'
p924
g106
tp925
I6
s(g45
S'executed'
p926
tp927
I3
s(S'captures'
p928
g723
tp929
I2
s(S'take'
p930
S'grandkids'
p931
tp932
I2
s(S'actors'
p933
g37
tp934
I3
s(S'giant'
p935
S'step'
p936
tp937
I2
s(g106
S'music'
p938
tp939
I2
s(S'prescribed'
p940
S'recommended'
p941
tp942
I3
s(S'frank'
p943
S'humanity'
p944
tp945
I2
s(g646
S'idealistic'
p946
tp947
I2
s(g45
S'call'
p948
tp949
I2
s(S'through'
p950
S'family'
p951
tp952
I2
s(S'absolutely'
p953
S'earned'
p954
tp955
I2
s(S'almost'
p956
g841
tp957
I2
s(S'comedy'
p958
S'benevolent'
p959
tp960
I2
s(g106
S'being'
p961
tp962
I2
s(S'reno'
p963
g597
tp964
I2
s(S'engaging'
p965
g238
tp966
I2
s(g570
g369
tp967
I2
s(S'strong'
p968
S'men'
p969
tp970
I2
s(S'rather'
p971
S'demonstrate'
p972
tp973
I2
s(g961
g557
tp974
I2
s(g87
g37
tp975
I2
s(S'kid'
p976
g106
tp977
I2
s(S'majestic'
p978
S'achievement'
p979
tp980
I3
s(S'half'
p981
S'baked'
p982
tp983
I2
s(S'delicious'
p984
S'crime'
p985
tp986
I2
s(S'winner'
p987
g37
tp988
I2
s(g951
S'history'
p989
tp990
I2
s(g45
g761
tp991
I2
s(g113
S'new'
p992
tp993
I2
s(S'rrb'
p994
S'comedy'
p995
tp996
I2
s(S'vision'
p997
S'attention'
p998
tp999
I2
s(S'worth'
p1000
S'seeing'
p1001
tp1002
I2
s(g106
S'lyrical'
p1003
tp1004
I2
s(S'sweeping'
p1005
g86
tp1006
I2
s(S'women'
p1007
g37
tp1008
I2
s(g45
S'greatest'
p1009
tp1010
I2
s(S'stitch'
p1011
S'nt'
p1012
tp1013
I2
s(g34
S'sweet'
p1014
tp1015
I2
s(S'performance'
p1016
g928
tp1017
I2
s(S'wonderful'
p1018
g569
tp1019
I2
s(S'justice'
p1020
g94
tp1021
I2
s(S'stealing'
p1022
g523
tp1023
I3
s(S'feel'
p1024
g776
tp1025
I2
s(g739
g474
tp1026
I2
s(S'yet'
p1027
g428
tp1028
I2
s(S'desert'
p1029
g601
tp1030
I2
s(S'waiting'
p1031
S'room'
p1032
tp1033
I3
s(g45
S'often'
p1034
tp1035
I2
s(g317
S'minds'
p1036
tp1037
I4
s(S'feeling'
p1038
g293
tp1039
I2
s(S'final'
p1040
S'beautiful'
p1041
tp1042
I2
s(g45
S'does'
p1043
tp1044
I7
s(g135
g37
tp1045
I6
s(g45
S'funny'
p1046
tp1047
I5
s(S'bad'
p1048
S'movie'
p1049
tp1050
I9
s(g45
g978
tp1051
I3
s(g45
S'hot'
p1052
tp1053
I2
s(S'paper'
p1054
S'thin'
p1055
tp1056
I2
s(g372
g37
tp1057
I2
s(S'frequently'
p1058
g288
tp1059
I2
s(g605
S'litmus'
p1060
tp1061
I2
s(g380
g37
tp1062
I2
s(g339
g106
tp1063
I2
s(g103
S'directing'
p1064
tp1065
I2
s(g1032
g184
tp1066
I3
s(g45
S'stanzas'
p1067
tp1068
I2
s(g45
S'far'
p1069
tp1070
I3
s(g45
g612
tp1071
I2
s(g755
g513
tp1072
I2
s(S'whimsical'
p1073
S'feature'
p1074
tp1075
I2
s(g244
g81
tp1076
I2
s(S'script'
p1077
g106
tp1078
I2
s(g45
S'full'
p1079
tp1080
I3
s(S'wannabe'
p1081
S'comedy'
p1082
tp1083
I2
s(S'too'
p1084
g497
tp1085
I2
s(g482
S'shocking'
p1086
tp1087
I2
s(g780
S'sweet'
p1088
tp1089
I2
s(S'engaging'
p1090
S'oddly'
p1091
tp1092
I2
s(S'life'
p1093
g37
tp1094
I4
s(g106
S'endless'
p1095
tp1096
I2
s(S'solidly'
p1097
S'constructed'
p1098
tp1099
I2
s(S'nicely'
p1100
S'shot'
p1101
tp1102
I2
s(S'hit'
p1103
S'silver'
p1104
tp1105
I2
s(S'imagination'
p1106
S'impressive'
p1107
tp1108
I2
s(g703
g1011
tp1109
I2
s(g724
S'demons'
p1110
tp1111
I2
s(g377
g187
tp1112
I2
s(g225
S'extreme'
p1113
tp1114
I2
s(S'hideously'
p1115
g118
tp1116
I2
s(S'anything'
p1117
S'more'
p1118
tp1119
I2
s(S'involving'
p1120
S'aragorn'
p1121
tp1122
I2
s(S'hedonistic'
p1123
g262
tp1124
I2
s(g679
g444
tp1125
I2
s(g310
g33
tp1126
I2
s(S'unrecoverable'
p1127
S'life'
p1128
tp1129
I3
s(S'genuine'
p1130
S'insight'
p1131
tp1132
I2
s(S'pack'
p1133
S'serious'
p1134
tp1135
I2
s(S'terrific'
p1136
S'performance'
p1137
tp1138
I2
s(S'end'
p1139
S'walking'
p1140
tp1141
I2
s(g882
g37
tp1142
I3
s(g45
S'new'
p1143
tp1144
I2
s(S'deft'
p1145
S'sense'
p1146
tp1147
I2
s(S'feature'
p1148
g200
tp1149
I4
s(g902
g37
tp1150
I3
s(g992
S'thriller'
p1151
tp1152
I2
s(S'satisfying'
p1153
S'evening'
p1154
tp1155
I2
s(g45
S'ability'
p1156
tp1157
I2
s(S'documenting'
p1158
g37
tp1159
I2
s(S'embrace'
p1160
g1007
tp1161
I2
s(S'such'
p1162
g555
tp1163
I2
s(S'provoking'
p1164
S'film'
p1165
tp1166
I2
s(S'more'
p1167
g335
tp1168
I2
s(S'offers'
p1169
S'chills'
p1170
tp1171
I4
s(g865
g272
tp1172
I2
s(S'trapped'
p1173
S'bad'
p1174
tp1175
I2
s(g791
g574
tp1176
I3
s(g682
g37
tp1177
I4
s(g45
S'exceptionally'
p1178
tp1179
I2
s(S'director'
p1180
g106
tp1181
I2
s(S'cultural'
p1182
S'idealism'
p1183
tp1184
I2
s(g921
S'surprisingly'
p1185
tp1186
I2
s(S'fiction'
p1187
g37
tp1188
I2
s(g1156
S'shock'
p1189
tp1190
I2
s(g498
g37
tp1191
I2
s(S'drama'
p1192
g1100
tp1193
I2
s(g442
g351
tp1194
I2
s(S'exceptional'
p1195
g126
tp1196
I2
s(S'makes'
p1197
S'feel'
p1198
tp1199
I2
s(g459
g736
tp1200
I3
s(S'heaven'
p1201
g106
tp1202
I2
s(g45
S'never'
p1203
tp1204
I3
s(S'ranks'
p1205
S'original'
p1206
tp1207
I2
s(g45
S'incredibly'
p1208
tp1209
I4
s(g106
S'movie'
p1210
tp1211
I2
s(g1034
S'hilarious'
p1212
tp1213
I3
s(g809
S'works'
p1214
tp1215
I2
s(S'broaches'
p1216
S'neo'
p1217
tp1218
I2
s(g800
g572
tp1219
I2
s(S'saw'
p1220
g275
tp1221
I2
s(g106
S'inventive'
p1222
tp1223
I2
s(S'behave'
p1224
S'like'
p1225
tp1226
I2
s(S'spy'
p1227
S'had'
p1228
tp1229
I2
s(S'depth'
p1230
g37
tp1231
I2
s(S'fisted'
p1232
S'sex'
p1233
tp1234
I2
s(S'nt'
p1235
g1022
tp1236
I2
s(g893
g675
tp1237
I2
s(g45
S'class'
p1238
tp1239
I2
s(S'hopes'
p1240
S'camouflage'
p1241
tp1242
I2
s(g879
g1081
tp1243
I2
s(g547
g37
tp1244
I2
s(S'obsessions'
p1245
S'dominate'
p1246
tp1247
I2
s(S'talent'
p1248
g37
tp1249
I2
s(S'experience'
p1250
g37
tp1251
I7
s(g341
S'charm'
p1252
tp1253
I2
s(g45
S'consistently'
p1254
tp1255
I4
s(S'blade'
p1256
S'ii'
p1257
tp1258
I2
s(S'energetic'
p1259
g529
tp1260
I2
s(S'rewards'
p1261
S'exoticism'
p1262
tp1263
I2
s(g106
g1158
tp1264
I2
s(g553
g422
tp1265
I2
s(g904
S'accents'
p1266
tp1267
I2
s(g1101
S'edited'
p1268
tp1269
I2
s(S'finale'
p1270
g37
tp1271
I2
s(g1041
S'scene'
p1272
tp1273
I2
s(g729
g910
tp1274
I2
s(S'best'
p1275
S'drumline'
p1276
tp1277
I2
s(g873
S'losing'
p1278
tp1279
I2
s(g1268
g349
tp1280
I2
s(S'last'
p1281
S'time'
p1282
tp1283
I2
s(S'fuzzy'
p1284
g1038
tp1285
I2
s(g1003
S'endeavour'
p1286
tp1287
I2
s(g651
S'communal'
p1288
tp1289
I2
s(S'man'
p1290
g397
tp1291
I2
s(g45
S'lively'
p1292
tp1293
I2
s(g73
g875
tp1294
I2
s(g918
g456
tp1295
I2
s(S'feel'
p1296
S'like'
p1297
tp1298
I2
s(g45
S'dramatic'
p1299
tp1300
I2
s(S'funny'
p1301
g549
tp1302
I2
s(S'cinematic'
p1303
g1250
tp1304
I2
s(g289
S'sensitive'
p1305
tp1306
I2
s(S'never'
p1307
g89
tp1308
I2
s(g742
g37
tp1309
I2
s(S'suspense'
p1310
g37
tp1311
I3
s(g45
S'fails'
p1312
tp1313
I2
s(S'drama'
p1314
S'compassion'
p1315
tp1316
I2
s(g1064
S'world'
p1317
tp1318
I2
s(g1278
S'machismo'
p1319
tp1320
I2
s(S'forster'
p1321
S'always'
p1322
tp1323
I2
s(g260
S'performances'
p1324
tp1325
I2
s(S'suckers'
p1326
S'surrender'
p1327
tp1328
I2
s(S'themselves'
p1329
g815
tp1330
I2
s(S'cohesion'
p1331
S'entirely'
p1332
tp1333
I2
s(g876
S'story'
p1334
tp1335
I2
s(g1140
g718
tp1336
I2
s(S'guide'
p1337
S'loose'
p1338
tp1339
I3
s(S'watching'
p1340
g1227
tp1341
I2
s(g641
g1005
tp1342
I2
s(S'films'
p1343
S'none'
p1344
tp1345
I2
s(g1210
g1216
tp1346
I2
s(S'seconds'
p1347
S'plot'
p1348
tp1349
I2
s(S'female'
p1350
S'without'
p1351
tp1352
I2
s(g657
g163
tp1353
I2
s(g1189
S'amaze'
p1354
tp1355
I2
s(S'movie'
p1356
S'portrays'
p1357
tp1358
I2
s(S'ever'
p1359
S'good'
p1360
tp1361
I2
s(S'bland'
p1362
g521
tp1363
I3
s(g37
g45
tp1364
I718
s(S'cast'
p1365
S'action'
p1366
tp1367
I2
s(S'made'
p1368
S'film'
p1369
tp1370
I2
s(S'awe'
p1371
S'inspiring'
p1372
tp1373
I3
s(S'epic'
p1374
S'astonishing'
p1375
tp1376
I3
s(g45
S'pitch'
p1377
tp1378
I2
s(g1131
S'urban'
p1379
tp1380
I2
s(g45
g823
tp1381
I2
s(S'france'
p1382
g106
tp1383
I2
s(S'definitely'
p1384
S'meaningless'
p1385
tp1386
I2
s(S'warmth'
p1387
S'coldest'
p1388
tp1389
I2
s(g45
S'acting'
p1390
tp1391
I2
s(g1266
g37
tp1392
I2
s(g45
g510
tp1393
I3
s(S'ops'
p1394
g37
tp1395
I2
s(S'ugly'
p1396
S'destructive'
p1397
tp1398
I2
s(g550
S'specifically'
p1399
tp1400
I2
s(g45
g1130
tp1401
I2
s(S'history'
p1402
g37
tp1403
I2
s(S'privileged'
p1404
S'moments'
p1405
tp1406
I2
s(g46
S'amusing'
p1407
tp1408
I2
s(g124
S'credits'
p1409
tp1410
I2
s(S'anyone'
p1411
S'right'
p1412
tp1413
I2
s(g144
S'expertly'
p1414
tp1415
I2
s(g1185
S'romantic'
p1416
tp1417
I2
s(g907
g656
tp1418
I2
s(S'sides'
p1419
S'political'
p1420
tp1421
I2
s(g1069
g1167
tp1422
I2
s(S'people'
p1423
S'whom'
p1424
tp1425
I2
s(S'entertaining'
p1426
S'thought'
p1427
tp1428
I2
s(S'comedy'
p1429
g37
tp1430
I10
s(g669
g753
tp1431
I4
s(g45
S'sour'
p1432
tp1433
I2
s(S'mike'
p1434
S'shoots'
p1435
tp1436
I2
s(g43
g1314
tp1437
I2
s(g852
g37
tp1438
I3
s(S'frailty'
p1439
g1169
tp1440
I4
s(g511
g63
tp1441
I2
s(g691
g37
tp1442
I2
s(g448
S'comedic'
p1443
tp1444
I2
s(g1372
S'visual'
p1445
tp1446
I2
s(S'breathtakingly'
p1447
S'spectacular'
p1448
tp1449
I2
s(g109
S'sitting'
p1450
tp1451
I4
s(S'nt'
p1452
S'laughed'
p1453
tp1454
I2
s(g524
S'movie'
p1455
tp1456
I3
s(g1322
S'hilarious'
p1457
tp1458
I4
s(g1012
S'edgy'
p1459
tp1460
I2
s(S'family'
p1461
g37
tp1462
I2
s(S'entertainment'
p1463
g37
tp1464
I2
s(S'walls'
p1465
S'might'
p1466
tp1467
I2
s(g45
g624
tp1468
I2
s(g45
S'wasted'
p1469
tp1470
I2
s(g330
S'constant'
p1471
tp1472
I2
s(S'triumph'
p1473
S'memorable'
p1474
tp1475
I2
s(S'augustinian'
p1476
S'theology'
p1477
tp1478
I2
s(S'great'
p1479
g134
tp1480
I2
s(g1379
g400
tp1481
I2
s(g1405
S'memorable'
p1482
tp1483
I2
s(g45
S'outstanding'
p1484
tp1485
I2
s(S'effective'
p1486
S'aspects'
p1487
tp1488
I2
s(g45
S'last'
p1489
tp1490
I2
s(g622
S'men'
p1491
tp1492
I2
s(S'dialogue'
p1493
g1347
tp1494
I2
s(g180
g645
tp1495
I2
s(S'redundancy'
p1496
g37
tp1497
I3
s(S'bore'
p1498
g37
tp1499
I2
s(S'much'
p1500
g108
tp1501
I4
s(g1222
g610
tp1502
I2
s(S'very'
p1503
g1426
tp1504
I2
s(g45
S'done'
p1505
tp1506
I2
s(S'film'
p1507
S'watercolor'
p1508
tp1509
I2
s(g45
g13
tp1510
I2
s(g616
S'devoid'
p1511
tp1512
I3
s(S'make'
p1513
g233
tp1514
I2
s(S'terrible'
p1515
g37
tp1516
I2
s(g1487
g270
tp1517
I2
s(g45
S'finds'
p1518
tp1519
I2
s(S'minutes'
p1520
g1127
tp1521
I3
s(g45
S'remarkable'
p1522
tp1523
I3
s(g847
g940
tp1524
I2
s(S'monster'
p1525
S'movie'
p1526
tp1527
I2
s(g1388
S'environment'
p1528
tp1529
I2
s(g817
S'cushion'
p1530
tp1531
I3
s(g1183
g1123
tp1532
I2
s(g28
g858
tp1533
I2
s(S'hilarious'
p1534
g994
tp1535
I2
s(S'credits'
p1536
S'roll'
p1537
tp1538
I3
s(S'laughter'
p1539
S'until'
p1540
tp1541
I2
s(S'since'
p1542
S'dumbo'
p1543
tp1544
I2
s(S'hugely'
p1545
S'rewarding'
p1546
tp1547
I2
s(g519
g924
tp1548
I2
s(g1286
g37
tp1549
I2
s(g106
S'dreams'
p1550
tp1551
I2
s(S'vulgar'
p1552
g37
tp1553
I2
s(g527
S'ending'
p1554
tp1555
I2
s(g45
S'surprising'
p1556
tp1557
I2
s(g654
S'm'
p1558
tp1559
I2
s(g979
g1374
tp1560
I3
s(S'puzzling'
p1561
g886
tp1562
I2
s(S'frenetic'
p1563
g1301
tp1564
I2
s(S'great'
p1565
S'american'
p1566
tp1567
I2
s(S'nt'
p1568
S'worth'
p1569
tp1570
I2
s(S'word'
p1571
S'bad'
p1572
tp1573
I2
s(S'movie'
p1574
S'years'
p1575
tp1576
I2
s(g803
g37
tp1577
I2
s(S'backward'
p1578
S'director'
p1579
tp1580
I2
s(S'good'
p1581
g37
tp1582
I3
s(S'bittersweet'
p1583
g888
tp1584
I2
s(S'dramatic'
p1585
S'slap'
p1586
tp1587
I2
s(g1046
g870
tp1588
I2
s(g45
S'inuit'
p1589
tp1590
I2
s(S'liking'
p1591
S'sees'
p1592
tp1593
I2
s(g1569
g774
tp1594
I2
s(g944
S'emotional'
p1595
tp1596
I2
s(S'bad'
p1597
S'imitation'
p1598
tp1599
I2
s(g1276
g638
tp1600
I2
s(S'control'
p1601
g1337
tp1602
I2
s(g359
g42
tp1603
I2
s(g856
S'appealing'
p1604
tp1605
I2
s(g766
g37
tp1606
I5
s(g45
S'no'
p1607
tp1608
I2
s(S'arwen'
p1609
S'better'
p1610
tp1611
I2
s(g871
g1534
tp1612
I2
s(g1518
g1387
tp1613
I2
s(S'less'
p1614
S'half'
p1615
tp1616
I2
s(g1338
S'poorly'
p1617
tp1618
I3
s(g464
S'love'
p1619
tp1620
I2
s(g45
g678
tp1621
I2
s(S'contrived'
p1622
g734
tp1623
I2
s(S'plot'
p1624
g106
tp1625
I2
s(S'funny'
p1626
g1561
tp1627
I2
s(S'recreates'
p1628
g143
tp1629
I2
s(S'interesting'
p1630
S'barely'
p1631
tp1632
I2
s(S'each'
p1633
S'seeing'
p1634
tp1635
I2
s(S'dullest'
p1636
S'science'
p1637
tp1638
I2
s(g468
S'perfect'
p1639
tp1640
I2
s(g1558
S'night'
p1641
tp1642
I2
s(g198
S'told'
p1643
tp1644
I2
s(S'has'
p1645
g715
tp1646
I2
s(S'has'
p1647
S'crafted'
p1648
tp1649
I2
s(g1550
g1609
tp1650
I2
s(S'carry'
p1651
g741
tp1652
I2
s(g45
S'imaginative'
p1653
tp1654
I2
s(g1292
S'engaging'
p1655
tp1656
I2
s(g45
g586
tp1657
I2
s(S'fine'
p1658
g627
tp1659
I2
s(g1088
g487
tp1660
I2
s(g45
S'needs'
p1661
tp1662
I2
s(S'tale'
p1663
g37
tp1664
I2
s(g608
g805
tp1665
I2
s(g794
S'idea'
p1666
tp1667
I2
s(g45
S'extraordinary'
p1668
tp1669
I2
s(g1079
g1404
tp1670
I2
s(S'being'
p1671
g59
tp1672
I2
s(S'astonish'
p1673
S'entertain'
p1674
tp1675
I2
s(g1043
S'taste'
p1676
tp1677
I2
s(g434
g1133
tp1678
I2
s(S'excuse'
p1679
g971
tp1680
I2
s(S'story'
p1681
g1568
tp1682
I2
s(g1324
g37
tp1683
I8
s(S'bad'
p1684
g772
tp1685
I2
s(g1241
g1048
tp1686
I2
s(S'represents'
p1687
S'auspicious'
p1688
tp1689
I2
s(S'hilarious'
p1690
g37
tp1691
I3
s(g1354
g37
tp1692
I2
s(g1653
g701
tp1693
I2
s(S'feel'
p1694
g953
tp1695
I2
s(g45
S'has'
p1696
tp1697
I14
s(g45
S'poorly'
p1698
tp1699
I3
s(g45
g1651
tp1700
I2
s(g1586
S'face'
p1701
tp1702
I2
s(S'deeply'
p1703
S'humanistic'
p1704
tp1705
I2
s(S'recovery'
p1706
g37
tp1707
I2
s(S'll'
p1708
g39
tp1709
I2
s(g252
g37
tp1710
I2
s(S'necessary'
p1711
S'self'
p1712
tp1713
I2
s(g57
g37
tp1714
I2
s(S'poetry'
p1715
g37
tp1716
I3
s(g218
g518
tp1717
I2
s(S'years'
p1718
g37
tp1719
I6
s(g1617
g747
tp1720
I3
s(S'moving'
p1721
g37
tp1722
I4
s(g31
g37
tp1723
I2
s(S'paid'
p1724
S'enough'
p1725
tp1726
I2
s(g1170
g1500
tp1727
I4
s(S'make'
p1728
g1326
tp1729
I2
s(g1668
g37
tp1730
I2
s(g1332
S'foreign'
p1731
tp1732
I2
s(g45
S'lacks'
p1733
tp1734
I2
s(g1688
g1148
tp1735
I2
s(S'spectrum'
p1736
g37
tp1737
I2
s(S'through'
p1738
S'crap'
p1739
tp1740
I2
s(S'discord'
p1741
g1020
tp1742
I2
s(S'has'
p1743
g1261
tp1744
I2
s(g590
S'breadth'
p1745
tp1746
I2
s(g889
g1040
tp1747
I2
s(S'screen'
p1748
g1507
tp1749
I2
s(g266
S'painful'
p1750
tp1751
I2
s(g45
g1136
tp1752
I2
s(g564
g1090
tp1753
I2
s(g45
S'once'
p1754
tp1755
I2
s(g45
S'fast'
p1756
tp1757
I2
s(S'animation'
p1758
g1103
tp1759
I2
s(g697
g106
tp1760
I2
s(S'real'
p1761
g1093
tp1762
I3
s(g501
g1513
tp1763
I2
s(g258
S'entertainment'
p1764
tp1765
I2
s(g2
g1574
tp1766
I2
s(S'elegant'
p1767
S'witty'
p1768
tp1769
I2
s(g602
g37
tp1770
I2
s(g1107
S'style'
p1771
tp1772
I3
s(g45
S'draw'
p1773
tp1774
I2
s(S'ride'
p1775
g37
tp1776
I3
s(g367
S'crumb'
p1777
tp1778
I2
s(S'shyamalan'
p1779
g405
tp1780
I2
s(S'impulses'
p1781
S'grew'
p1782
tp1783
I2
s(S'amazingly'
p1784
g137
tp1785
I2
s(g1014
g1583
tp1786
I2
s(S'captivating'
p1787
S'insanely'
p1788
tp1789
I3
s(g45
S'must'
p1790
tp1791
I2
s(S'head'
p1792
g37
tp1793
I3
s(S'piercing'
p1794
S'intellect'
p1795
tp1796
I2
s(g191
g1173
tp1797
I2
s(S'plot'
p1798
g395
tp1799
I2
s(g45
S'biggest'
p1800
tp1801
I2
s(S'god'
p1802
S'stuck'
p1803
tp1804
I2
s(g710
g1536
tp1805
I2
s(S'superb'
p1806
g881
tp1807
I2
s(g998
g782
tp1808
I2
s(S'action'
p1809
S'movie'
p1810
tp1811
I2
s(g1416
g1775
tp1812
I2
s(S'mess'
p1813
g37
tp1814
I2
s(g45
g1447
tp1815
I2
s(g1262
g425
tp1816
I2
s(g787
g1473
tp1817
I2
s(S'were'
p1818
g851
tp1819
I3
s(g1554
S'warm'
p1820
tp1821
I2
s(g336
g821
tp1822
I2
s(S'soul'
p1823
S'screenwriting'
p1824
tp1825
I2
s(S'examination'
p1826
S'similar'
p1827
tp1828
I2
s(g1795
g37
tp1829
I2
s(g282
g1365
tp1830
I2
s(g1619
g37
tp1831
I2
s(S'daring'
p1832
g379
tp1833
I2
s(g352
g589
tp1834
I2
s(g1643
g1806
tp1835
I2
s(g1466
g707
tp1836
I2
s(g1790
g1419
tp1837
I2
s(S'does'
p1838
S'nt'
p1839
tp1840
I9
s(g1739
S'like'
p1841
tp1842
I2
s(g1615
g1798
tp1843
I2
s(g45
g984
tp1844
I2
s(g1154
g662
tp1845
I2
s(g45
S'raunchy'
p1846
tp1847
I2
s(g1450
g668
tp1848
I4
s(g1474
g1303
tp1849
I2
s(g1589
g96
tp1850
I2
s(g45
g930
tp1851
I2
s(g1712
g1601
tp1852
I2
s(g67
g687
tp1853
I2
s(S'sincere'
p1854
g1356
tp1855
I2
s(S'company'
p1856
g37
tp1857
I2
s(g1610
g764
tp1858
I2
s(S'summer'
p1859
S'movies'
p1860
tp1861
I2
s(g1579
g813
tp1862
I2
s(S'find'
p1863
g72
tp1864
I2
s(g1637
g1187
tp1865
I2
s(S'movie'
p1866
g37
tp1867
I26
s(g938
S'story'
p1868
tp1869
I2
s(g45
S'begin'
p1870
tp1871
I2
s(S'director'
p1872
g546
tp1873
I2
s(g842
g24
tp1874
I2
s(g116
S'logic'
p1875
tp1876
I2
s(g106
g371
tp1877
I2
s(g45
g231
tp1878
I2
s(S'surprising'
p1879
S'emotional'
p1880
tp1881
I2
s(g45
g1486
tp1882
I2
s(g1764
g1728
tp1883
I2
s(g426
g640
tp1884
I2
s(g514
g178
tp1885
I2
s(g106
g1275
tp1886
I2
s(g985
S'drama'
p1887
tp1888
I3
s(g1508
S'background'
p1889
tp1890
I2
s(g1696
S'great'
p1891
tp1892
I2
s(g613
g956
tp1893
I2
s(g201
g37
tp1894
I2
s(g1839
g1711
tp1895
I2
s(S'across'
p1896
g1465
tp1897
I2
s(g1238
S'natural'
p1898
tp1899
I2
s(g911
g1340
tp1900
I2
s(g1639
g1016
tp1901
I2
s(S'certainly'
p1902
g1205
tp1903
I2
s(g45
S'ultimately'
p1904
tp1905
I2
s(g936
g1578
tp1906
I2
s(g415
g37
tp1907
I2
s(g1824
S'dummies'
p1908
tp1909
I2
s(g17
g1496
tp1910
I3
s(S'not'
p1911
S'easily'
p1912
tp1913
I2
s(g732
g839
tp1914
I2
s(g1634
g577
tp1915
I2
s(g1377
S'perfect'
p1916
tp1917
I2
s(S'down'
p1918
S'time'
p1919
tp1920
I2
s(g1208
g1787
tp1921
I3
s(g1409
g1029
tp1922
I2
s(g1178
g834
tp1923
I2
s(g1357
g943
tp1924
I2
s(g488
g37
tp1925
I2
s(g320
g976
tp1926
I2
s(g45
g1918
tp1927
I3
s(S'characters'
p1928
S'believable'
p1929
tp1930
I2
s(S'acting'
p1931
g500
tp1932
I2
s(g1212
S'minutes'
p1933
tp1934
I2
s(S'silly'
p1935
g248
tp1936
I2
s(g8
g1687
tp1937
I2
s(g5
S'audience'
p1938
tp1939
I2
s(g1067
S'breathtaking'
p1940
tp1941
I2
s(g106
S'imagination'
p1942
tp1943
I2
s(g1543
g1902
tp1944
I2
s(S've'
p1945
S'seen'
p1946
tp1947
I2
s(g1674
g37
tp1948
I2
s(S'bad'
p1949
S'bad'
p1950
tp1951
I3
s(g1889
g1542
tp1952
I2
s(g1592
g37
tp1953
I2
s(g268
g1290
tp1954
I2
s(g1334
g1139
tp1955
I2
s(g1459
S'piece'
p1956
tp1957
I2
s(g543
g796
tp1958
I3
s(S'loses'
p1959
g1823
tp1960
I2
s(S'full'
p1961
S'holes'
p1962
tp1963
I2
s(S'big'
p1964
g1859
tp1965
I2
s(g1282
g1220
tp1966
I2
s(g1351
S'missing'
p1967
tp1968
I2
s(g1471
S'fits'
p1969
tp1970
I2
s(g106
S'period'
p1971
tp1972
I2
s(g45
g1439
tp1973
I2
s(S'screen'
p1974
g37
tp1975
I2
s(g45
g229
tp1976
I2
s(g1484
g1872
tp1977
I2
s(g1254
S'delightful'
p1978
tp1979
I2
s(g1424
g115
tp1980
I2
s(S'film'
p1981
g307
tp1982
I2
s(g899
g1382
tp1983
I2
s(g806
S'suggesting'
p1984
tp1985
I2
s(S'rejected'
p1986
g864
tp1987
I2
s(g45
g901
tp1988
I2
s(g1537
g526
tp1989
I2
s(g1174
g694
tp1990
I2
s(g884
g1679
tp1991
I2
s(g1445
g1715
tp1992
I2
s(g45
S're'
p1993
tp1994
I4
s(g106
g758
tp1995
I2
s(g1916
g1321
tp1996
I2
s(g45
S'film'
p1997
tp1998
I6
s(g995
g1145
tp1999
I2
s(g64
g37
tp2000
I2
s(g1104
g1748
tp2001
I2
s(g948
g963
tp2002
I2
s(S'good'
p2003
S'performances'
p2004
tp2005
I2
s(g437
S'hookers'
p2006
tp2007
I2
s(g1505
g1658
tp2008
I2
s(g418
g935
tp2009
I2
s(S'story'
p2010
g37
tp2011
I3
s(g302
S'vivid'
p2012
tp2013
I2
s(g826
g37
tp2014
I3
s(S'refreshing'
p2015
g37
tp2016
I2
s(S'problems'
p2017
g37
tp2018
I2
s(g941
S'visually'
p2019
tp2020
I3
s(g1908
g671
tp2021
I2
s(S'sometimes'
p2022
g1195
tp2023
I2
s(g152
S'charles'
p2024
tp2025
I2
s(g106
g665
tp2026
I2
s(S'gods'
p2027
g37
tp2028
I2
s(g1595
g1706
tp2029
I2
s(S'comfort'
p2030
g37
tp2031
I2
s(S'barely'
p2032
g1630
tp2033
I2
s(g1407
g37
tp2034
I2
s(g82
g37
tp2035
I2
s(g685
g958
tp2036
I2
s(g972
g361
tp2037
I2
s(g561
g53
tp2038
I4
s(g276
g477
tp2039
I2
s(g1272
S'finally'
p2040
tp2041
I2
s(g587
g1162
tp2042
I2
s(g45
S'same'
p2043
tp2044
I2
s(g1305
S'cultivated'
p2045
tp2046
I2
s(g147
g552
tp2047
I2
s(g472
S'documentary'
p2048
tp2049
I2
s(g1327
g1520
tp2050
I3
s(g1540
g1863
tp2051
I2
s(g169
g390
tp2052
I2
s(S'may'
p2053
g402
tp2054
I2
s(S'spirit'
p2055
S'game'
p2056
tp2057
I2
s(S'grandparents'
p2058
g1307
tp2059
I2
s(g1933
g37
tp2060
I4
s(g1091
g1721
tp2061
I2
s(g1731
S'concept'
p2062
tp2063
I2
s(g1060
g453
tp2064
I2
s(g1246
g1461
tp2065
I2
s(g1455
g1818
tp2066
I3
s(g1725
S'sit'
p2067
tp2068
I2
s(g1756
g1563
tp2069
I2
s(S'utterly'
p2070
S'incompetent'
p2071
tp2072
I2
s(g1344
g1359
tp2073
I2
s(g1676
g439
tp2074
I2
s(S'spy'
p2075
S'thriller'
p2076
tp2077
I2
s(S'numbingly'
p2078
g534
tp2079
I3
s(g916
g1784
tp2080
I2
s(g959
g594
tp2081
I2
s(S'dashing'
p2082
g898
tp2083
I2
s(g174
S'much'
p2084
tp2085
I2
s(g362
S'human'
p2086
tp2087
I2
s(g45
S'sit'
p2088
tp2089
I2
s(g1556
g987
tp2090
I2
s(g45
g1452
tp2091
I6
s(S'car'
p2092
S'chase'
p2093
tp2094
I2
s(g1098
S'entertaining'
p2095
tp2096
I2
s(g1788
S'funny'
p2097
tp2098
I3
s(g475
g37
tp2099
I2
s(g989
g1633
tp2100
I2
s(g2040
g1694
tp2101
I2
s(g1412
S'mind'
p2102
tp2103
I2
s(g70
g1182
tp2104
I2
s(g249
S'movie'
p2105
tp2106
I2
s(g1113
g1394
tp2107
I2
s(g785
g37
tp2108
I3
s(g213
S'thriller'
p2109
tp2110
I2
s(g1206
S'years'
p2111
tp2112
I2
s(g222
g37
tp2113
I3
s(g1052
S'chick'
p2114
tp2115
I2
s(g727
g37
tp2116
I2
s(g106
S'not'
p2117
tp2118
I4
s(g2012
g1106
tp2119
I2
s(g485
S'oscar'
p2120
tp2121
I2
s(g1443
g364
tp2122
I2
s(g508
g1866
tp2123
I2
s(g45
g1545
tp2124
I4
s(S'infidelity'
p2125
g1192
tp2126
I2
s(S'consistently'
p2127
g343
tp2128
I2
s(g45
S'terrible'
p2129
tp2130
I2
s(S'mind'
p2131
g2078
tp2132
I3
s(g914
S'thoroughly'
p2133
tp2134
I3
s(S'never'
p2135
S'quite'
p2136
tp2137
I2
s(S'exterior'
p2138
g322
tp2139
I2
s(g1631
g819
tp2140
I2
s(g1001
g37
tp2141
I2
s(S'pieces'
p2142
g173
tp2143
I2
s(g1546
S'experience'
p2144
tp2145
I2
s(g2006
g1329
tp2146
I2
s(g166
S'performances'
p2147
tp2148
I2
s(g45
g1024
tp2149
I4
s(g1898
g1931
tp2150
I2
s(g2076
g37
tp2151
I7
s(g45
S'might'
p2152
tp2153
I4
s(g1887
g699
tp2154
I2
s(S'disaster'
p2155
g37
tp2156
I3
s(g129
g1703
tp2157
I2
s(g1803
g1201
tp2158
I2
s(g45
g808
tp2159
I2
s(g279
g2138
tp2160
I2
s(g673
g650
tp2161
I2
s(g1477
g1802
tp2162
I2
s(S'delivering'
p2163
g1585
tp2164
I2
s(S'without'
p2165
g738
tp2166
I2
s(g1745
g997
tp2167
I2
s(g1827
g1245
tp2168
I2
s(S'somewhat'
p2169
S'touched'
p2170
tp2171
I2
s(S'entwined'
p2172
g950
tp2173
I2
s(g659
g1614
tp2174
I2
s(g1820
g1284
tp2175
I2
s(g445
g1350
tp2176
I2
s(g2084
g1000
tp2177
I2
s(g150
g726
tp2178
I2
s(g1457
S'meara'
p2179
tp2180
I2
s(g1938
g37
tp2181
I3
s(g783
g102
tp2182
I2
s(g1919
g1479
tp2183
I2
s(S'cast'
p2184
g37
tp2185
I2
s(g2086
g1781
tp2186
I2
s(g1217
g1476
tp2187
I2
s(g2114
g50
tp2188
I2
s(S'hearts'
p2189
S'many'
p2190
tp2191
I4
s(S'cynical'
p2192
g140
tp2193
I2
s(g1146
S'humor'
p2194
tp2195
I2
s(g837
g867
tp2196
I2
s(g429
g37
tp2197
I2
s(g45
g146
tp2198
I6
s(g1971
g2142
tp2199
I2
s(S't'
p2200
g37
tp2201
I2
s(S'embarrassment'
p2202
g37
tp2203
I2
s(g1448
g37
tp2204
I2
s(g45
g1673
tp2205
I2
s(g478
g1809
tp2206
I2
s(g1984
S'fourth'
p2207
tp2208
I2
s(g106
g1031
tp2209
I3
s(g1566
S'adventure'
p2210
tp2211
I2
s(g954
g37
tp2212
I2
s(g1846
g1058
tp2213
I2
s(S'people'
p2214
S'together'
p2215
tp2216
I2
s(S'worthy'
p2217
S'solutions'
p2218
tp2219
I2
s(g1666
g37
tp2220
I2
s(g25
g37
tp2221
I3
s(S'admirable'
p2222
g2022
tp2223
I2
s(S'let'
p2224
S'alone'
p2225
tp2226
I2
s(g2024
g160
tp2227
I2
s(g45
g1832
tp2228
I2
s(g45
g1153
tp2229
I2
s(g854
g1552
tp2230
I2
s(g1771
g37
tp2231
I3
s(g2179
g195
tp2232
I2
s(g1366
g1343
tp2233
I2
s(g1956
S'disney'
p2234
tp2235
I2
s(g1704
g338
tp2236
I2
s(S'made'
p2237
g1423
tp2238
I2
s(g1228
g1964
tp2239
I2
s(g45
g1120
tp2240
I2
s(g1233
S'jokes'
p2241
tp2242
I2
s(g208
S'rhythms'
p2243
tp2244
I3
s(g1288
g1741
tp2245
I2
s(S'white'
p2246
g106
tp2247
I2
s(g1967
g648
tp2248
I2
s(g45
g2082
tp2249
I2
s(g811
g417
tp2250
I2
s(g844
g1232
tp2251
I2
s(g45
g215
tp2252
I3
s(g22
g2027
tp2253
I2
s(g45
g2163
tp2254
I2
s(g1528
g366
tp2255
I2
s(S'course'
p2256
g37
tp2257
I2
s(g2004
g408
tp2258
I2
s(g1604
g69
tp2259
I2
s(g132
g37
tp2260
I2
s(g896
g913
tp2261
I2
s(g1754
g633
tp2262
I2
s(g862
g2172
tp2263
I2
s(g2210
g1018
tp2264
I2
s(g1773
g2214
tp2265
I2
s(g2062
g37
tp2266
I3
s(g1511
S'substance'
p2267
tp2268
I2
s(g969
g861
tp2269
I2
s(S'rip'
p2270
S'off'
p2271
tp2272
I3
s(S'more'
p2273
S'like'
p2274
tp2275
I2
s(g1315
g463
tp2276
I2
s(g328
g802
tp2277
I2
s(S'together'
p2278
g2192
tp2279
I2
s(g676
g37
tp2280
I8
s(g530
g92
tp2281
I2
s(g45
g2125
tp2282
I2
s(g1491
g1160
tp2283
I2
s(g1750
g2015
tp2284
I2
s(g581
g1571
tp2285
I2
s(g1940
g1371
tp2286
I2
s(g719
g2169
tp2287
I2
s(g1252
g1794
tp2288
I2
s(g141
g257
tp2289
I2
s(S'emotional'
p2290
g2030
tp2291
I2
s(g1875
g1331
tp2292
I2
s(S'really'
p2293
g1597
tp2294
I4
s(g2120
g37
tp2295
I2
s(g1420
g1736
tp2296
I2
s(g2170
g37
tp2297
I2
s(g246
g325
tp2298
I2
s(S'scores'
p2299
g382
tp2300
I2
s(g239
S'british'
p2301
tp2302
I2
s(g1522
g1981
tp2303
I2
s(g1121
g106
tp2304
I2
s(g2045
g798
tp2305
I2
s(g1134
g1310
tp2306
I2
s(g708
g2222
tp2307
I2
s(g2243
g37
tp2308
I3
s(g40
g2202
tp2309
I2
s(g2215
g1896
tp2310
I2
s(S'brilliant'
p2311
S'motion'
p2312
tp2313
I2
s(g759
g56
tp2314
I2
s(g578
g1591
tp2315
I2
s(g1701
g106
tp2316
I2
s(g45
S'like'
p2317
tp2318
I4
s(g1414
g37
tp2319
I2
s(g45
S'beautiful'
p2320
tp2321
I2
s(S'itself'
p2322
S'playful'
p2323
tp2324
I2
s(S'thoroughly'
p2325
g965
tp2326
I2
s(g2095
S'thriller'
p2327
tp2328
I2
s(S'atrociously'
p2329
g2131
tp2330
I2
s(g2323
g2055
tp2331
I2
s(S'moving'
p2332
g584
tp2333
I2
s(g45
g1097
tp2334
I2
s(g406
g906
tp2335
I2
s(g45
g580
tp2336
I6
s(g1870
g123
tp2337
I2
s(g45
g471
tp2338
I2
s(g1110
g690
tp2339
I2
s(g2218
g2017
tp2340
I2
s(g2019
g1362
tp2341
I3
s(g868
g2217
tp2342
I2
s(g45
S'long'
p2343
tp2344
I2
s(g2207
S'feature'
p2345
tp2346
I2
s(g1880
g1230
tp2347
I2
s(g768
g413
tp2348
I2
s(S'flimsy'
p2349
S'worse'
p2350
tp2351
I2
s(g90
g1671
tp2352
I2
s(g45
S'very'
p2353
tp2354
I6
s(g1214
g2165
tp2355
I2
s(g285
g346
tp2356
I3
s(g461
g1854
tp2357
I2
s(g193
g2278
tp2358
I2
s(g1777
g2290
tp2359
I2
s(g506
g16
tp2360
I3
s(g2350
g1027
tp2361
I2
s(g1317
g37
tp2362
I2
s(g45
g830
tp2363
I5
s(g196
g1434
tp2364
I2
s(g1399
g4
tp2365
I2
s(g45
S'really'
p2366
tp2367
I2
s(g1530
g207
tp2368
I3
s(g2312
g490
tp2369
I3
s(S'hollywood'
p2370
g1647
tp2371
I2
s(g2194
g2322
tp2372
I2
s(g1095
g630
tp2373
I2
s(g1969
g1539
tp2374
I2
s(g2190
g37
tp2375
I4
s(g1036
g2189
tp2376
I4
s(g824
g1767
tp2377
I2
s(g2056
g2184
tp2378
I2
s(g1482
S'performances'
p2379
tp2380
I2
s(g2301
g1429
tp2381
I2
s(g1435
g2299
tp2382
I2
s(g1319
g37
tp2383
I2
s(S'witty'
p2384
g1073
tp2385
I2
s(g1891
g793
tp2386
I2
s(g1427
g1164
tp2387
I2
s(g931
g2058
tp2388
I2
s(g595
g2053
tp2389
I2
s(g567
g2311
tp2390
I2
s(g2152
g447
tp2391
I2
s(g2234
g1758
tp2392
I2
s(g1978
g37
tp2393
I2
s(g1655
g1826
tp2394
I2
s(g1453
S'hard'
p2395
tp2396
I2
s(g100
g37
tp2397
I2
s(g45
g2325
tp2398
I2
s(g558
g1270
tp2399
I2
s(g628
g2246
tp2400
I2
s(g1086
g2032
tp2401
I2
s(g1768
g278
tp2402
I2
s(g1810
g224
tp2403
I2
s(g45
S'low'
p2404
tp2405
I2
s(g1782
g1115
tp2406
I2
s(g2353
g210
tp2407
I2
s(g2133
g592
tp2408
I3
s(g45
g878
tp2409
I2
s(g423
g37
tp2410
I2
s(g1641
g1779
tp2411
I2
s(g54
g681
tp2412
I4
s(g392
g2332
tp2413
I2
s(g1997
g621
tp2414
I2
s(g45
g2384
tp2415
I2
s(g926
g2075
tp2416
I2
s(g778
g37
tp2417
I3
s(S'ludicrous'
p2418
g1622
tp2419
I2
s(g859
g1628
tp2420
I2
s(S'right'
p2421
g37
tp2422
I2
s(g242
g968
tp2423
I2
s(g1151
g653
tp2424
I2
s(g2395
g1718
tp2425
I2
s(g1572
g1856
tp2426
I2
s(g1868
g105
tp2427
I2
s.