(dp0
S'concept'
p1
I3
sS'skip'
p2
I2
sS'lack'
p3
I3
sS'four'
p4
I3
sS'manages'
p5
I3
sS'children'
p6
I2
sS'poorly'
p7
I8
sS'numbingly'
p8
I3
sS'does'
p9
I13
sS'ridiculousness'
p10
I2
sS'worth'
p11
I4
sS'lrb'
p12
I5
sS'worse'
p13
I5
sS'far'
p14
I3
sS'sloppy'
p15
I2
sS'screenwriting'
p16
I2
sS'every'
p17
I4
sS'formula'
p18
I2
sS'awful'
p19
I2
sS'slapdash'
p20
I3
sS'minute'
p21
I5
sS'school'
p22
I2
sS'car'
p23
I2
sS'guy'
p24
I3
sS'enjoy'
p25
I2
sS'revolution'
p26
I2
sS'tired'
p27
I2
sS'rrb'
p28
I5
sS'past'
p29
I2
sS'erotic'
p30
I2
sS'cast'
p31
I2
sS'sun'
p32
I3
sS'rotten'
p33
I2
sS'version'
p34
I3
sS'goes'
p35
I4
sS'new'
p36
I3
sS'ever'
p37
I6
sS'exercise'
p38
I3
sS'full'
p39
I4
sS'never'
p40
I8
sS'here'
p41
I5
sS'hours'
p42
I3
sS'studio'
p43
I2
sS'unrewarding'
p44
I3
sS'alone'
p45
I2
sS'suckers'
p46
I2
sS'along'
p47
I2
sS'irritating'
p48
I2
sS'change'
p49
I2
sS'extreme'
p50
I3
sS'substance'
p51
I2
sS'creeps'
p52
I2
sS'involved'
p53
I3
sS'experience'
p54
I3
sS'action'
p55
I8
sS'nowhere'
p56
I2
sS'unrecoverable'
p57
I3
sS'young'
p58
I2
sS'patience'
p59
I2
sS'resolutions'
p60
I2
sS'should'
p61
I2
sS'plot'
p62
I10
sS'crap'
p63
I4
sS'takes'
p64
I2
sS'sake'
p65
I2
sS'sports'
p66
I2
sS'few'
p67
I2
sS'films'
p68
I6
sS'tell'
p69
I2
sS'more'
p70
I18
sS'flat'
p71
I3
sS'becomes'
p72
I2
sS'company'
p73
I2
sS'surface'
p74
I2
sS'hole'
p75
I2
sS'had'
p76
I3
sS'none'
p77
I3
sS'word'
p78
I2
sS'room'
p79
I3
sS'hour'
p80
I4
sS'science'
p81
I2
sS'blade'
p82
I2
sS'soul'
p83
I2
sS'movies'
p84
I3
sS'sour'
p85
I2
sS'obvious'
p86
I4
sS'thin'
p87
I3
sS'making'
p88
I2
sS'conformity'
p89
I2
sS'slightest'
p90
I2
sS'history'
p91
I3
sS'control'
p92
I3
sS'ingenuity'
p93
I2
sS'indie'
p94
I2
sS'laughs'
p95
I3
sS'days'
p96
I3
sS'imitation'
p97
I2
sS'sense'
p98
I2
sS'lacks'
p99
I2
sS'mainstream'
p100
I2
sS'huge'
p101
I2
sS'needs'
p102
I2
sS'redundancy'
p103
I3
sS'end'
p104
I5
sS'sit'
p105
I6
sS'rather'
p106
I3
sS'embarrassingly'
p107
I2
sS'damage'
p108
I2
sS'very'
p109
I9
sS'hop'
p110
I2
sS'instead'
p111
I2
sS'comedy'
p112
I9
sS'mess'
p113
I4
sS'designed'
p114
I2
sS'coming'
p115
I3
sS'date'
p116
I2
sS'such'
p117
I2
sS'destructive'
p118
I2
sS'bleak'
p119
I2
sS'contrived'
p120
I4
sS'short'
p121
I2
sS'attempt'
p122
I2
sS'redundant'
p123
I2
sS'improvised'
p124
I2
sS'pay'
p125
I2
sS'worst'
p126
I6
sS'developed'
p127
I2
sS'years'
p128
I3
sS'course'
p129
I2
sS'paper'
p130
I2
sS'through'
p131
I11
sS'still'
p132
I2
sS'operative'
p133
I2
sS'dummies'
p134
I2
sS'comedic'
p135
I2
sS'broiling'
p136
I3
sS'garbage'
p137
I2
sS'fit'
p138
I3
sS'interesting'
p139
I4
sS'production'
p140
I3
sS'might'
p141
I7
sS'overcome'
p142
I2
sS'good'
p143
I8
sS'material'
p144
I5
sS'lunch'
p145
I3
sS'intellectual'
p146
I2
sS'half'
p147
I6
sS'not'
p148
I14
sS'downright'
p149
I2
sS'nor'
p150
I2
sS'gets'
p151
I4
sS'amateurish'
p152
I3
sS'rock'
p153
I4
sS'entirely'
p154
I5
sS'studios'
p155
I2
sS'everyone'
p156
I3
sS'meaningless'
p157
I3
sS'series'
p158
I2
sS'hard'
p159
I3
sS'idea'
p160
I5
sS'stealing'
p161
I3
sS'girl'
p162
I2
sS'beyond'
p163
I2
sS'special'
p164
I2
sS'really'
p165
I7
sS'ultimately'
p166
I2
sS'entertainment'
p167
I3
sS'since'
p168
I3
sS'looking'
p169
I2
sS'acting'
p170
I8
sS'got'
p171
I2
sS'tiresome'
p172
I2
sS'monster'
p173
I2
sS'little'
p174
I8
sS'quite'
p175
I2
sS'pitfalls'
p176
I3
sS'surely'
p177
I2
sS'imagine'
p178
I5
sS'put'
p179
I3
sS'care'
p180
I4
sS'scary'
p181
I2
sS'subzero'
p182
I2
sS'starts'
p183
I2
sS'sitcom'
p184
I3
sS'times'
p185
I3
sS'thing'
p186
I2
sS'loud'
p187
I3
sS'feel'
p188
I7
sS'inauthentic'
p189
I2
sS'soothing'
p190
I3
sS'another'
p191
I4
sS'bland'
p192
I3
sS'impossible'
p193
I2
sS'concert'
p194
I2
sS'story'
p195
I8
sS'script'
p196
I5
sS'murky'
p197
I2
sS'structured'
p198
I3
sS'fiction'
p199
I2
sS'anyone'
p200
I3
sS'flimsy'
p201
I2
sS'too'
p202
I12
sS'hollywood'
p203
I2
sS'final'
p204
I2
sS'trapped'
p205
I2
sS'exactly'
p206
I2
sS'rejected'
p207
I3
sS'dentist'
p208
I3
sS'predictable'
p209
I5
sS'wasted'
p210
I3
sS'off'
p211
I10
sS'believe'
p212
I3
sS'crawl'
p213
I2
sS'kind'
p214
I2
sS'boring'
p215
I7
sS'scenes'
p216
I2
sS'project'
p217
I2
sS'sabotaged'
p218
I2
sS'silly'
p219
I3
sS'were'
p220
I3
sS'false'
p221
I3
sS'mind'
p222
I5
sS'sad'
p223
I2
sS'need'
p224
I2
sS'seen'
p225
I2
sS'seem'
p226
I2
sS'saw'
p227
I3
sS'clearly'
p228
I2
sS'convenient'
p229
I2
sS'self'
p230
I5
sS'ideas'
p231
I2
sS'camouflage'
p232
I2
sS'recommended'
p233
I3
sS'useless'
p234
I2
sS'finding'
p235
I2
sS'play'
p236
I2
sS'sure'
p237
I4
sS'keeps'
p238
I2
sS'paid'
p239
I2
sS'falls'
p240
I2
sS'assault'
p241
I2
sS'charm'
p242
I2
sS'nothing'
p243
I7
sS'fisted'
p244
I2
sS'why'
p245
I5
sS'thriller'
p246
I2
sS'performances'
p247
I2
sS'clear'
p248
I2
sS'definitely'
p249
I2
sS'entertaining'
p250
I2
sS'inane'
p251
I2
sS'fact'
p252
I2
sS'random'
p253
I2
sS'cheap'
p254
I2
sS'solutions'
p255
I2
sS'telling'
p256
I2
sS'fine'
p257
I2
sS'find'
p258
I3
sS'giant'
p259
I2
sS'busy'
p260
I2
sS'painfully'
p261
I2
sS'written'
p262
I2
sS'crime'
p263
I4
sS'hardened'
p264
I2
sS'hip'
p265
I4
sS'watching'
p266
I5
sS'familiar'
p267
I2
sS'horrible'
p268
I4
sS'watch'
p269
I2
sS'cheaper'
p270
I2
sS'feels'
p271
I6
sS'malaise'
p272
I2
sS'nearly'
p273
I3
sS'cushion'
p274
I3
sS'smug'
p275
I2
sS'contriving'
p276
I2
sS'endless'
p277
I2
sS'idiotic'
p278
I2
sS'jokes'
p279
I3
sS'bad'
p280
I31
sS'stupid'
p281
I4
sS'wannabe'
p282
I3
sS'where'
p283
I3
sS'art'
p284
I2
sS'disaster'
p285
I5
sS'cynical'
p286
I2
sS'puddle'
p287
I2
sS'sex'
p288
I2
sS'close'
p289
I3
sS'squandering'
p290
I2
sS'fails'
p291
I2
sS'satisfying'
p292
I2
sS'pedigree'
p293
I2
sS'gags'
p294
I2
sS'waiting'
p295
I5
sS'movie'
p296
I51
sS'pootie'
p297
I3
sS'enough'
p298
I6
sS'between'
p299
I4
sS'before'
p300
I4
sS'monsters'
p301
I2
sS'lazy'
p302
I3
sS'loose'
p303
I3
sS'screen'
p304
I2
sS'embarrassment'
p305
I2
sS'harvard'
p306
I3
sS'nonexistent'
p307
I2
sS'premise'
p308
I2
sS'rhythms'
p309
I3
sS'indescribably'
p310
I3
sS'barely'
p311
I7
sS'foreign'
p312
I2
sS'disappointment'
p313
I2
sS'logic'
p314
I2
sS'witch'
p315
I2
sS'whole'
p316
I2
sS'load'
p317
I3
sS'point'
p318
I7
sS'seems'
p319
I2
sS'acted'
p320
I2
sS'dimensional'
p321
I2
sS'atrociously'
p322
I2
sS'laugh'
p323
I2
sS'celluloid'
p324
I3
sS'three'
p325
I6
sS'been'
p326
I7
sS'whom'
p327
I2
sS'much'
p328
I2
sS'interest'
p329
I2
sS'waste'
p330
I2
sS'incompetent'
p331
I2
sS'wants'
p332
I3
sS'life'
p333
I10
sS'else'
p334
I2
sS'kids'
p335
I2
sS'unamusing'
p336
I3
sS'last'
p337
I5
sS'those'
p338
I2
sS'terrible'
p339
I4
sS'vapid'
p340
I3
sS'tang'
p341
I3
sS'pretentious'
p342
I2
sS'admire'
p343
I2
sS'ugly'
p344
I3
sS'fun'
p345
I3
sS'guide'
p346
I3
sS'costly'
p347
I2
sS'almost'
p348
I3
sS'rip'
p349
I3
sS'someone'
p350
I2
sS'audiences'
p351
I3
sS'chase'
p352
I2
sS'funny'
p353
I5
sS'let'
p354
I3
sS'things'
p355
I4
sS'make'
p356
I9
sS'same'
p357
I4
sS'grand'
p358
I3
sS'several'
p359
I2
sS'visually'
p360
I3
sS'blair'
p361
I2
sS'rain'
p362
I2
sS'director'
p363
I6
sS'devoid'
p364
I3
sS'preachy'
p365
I2
sS'characters'
p366
I7
sS'prescribed'
p367
I3
sS'theater'
p368
I2
sS'itself'
p369
I3
sS'spent'
p370
I2
sS'without'
p371
I5
sS'thoroughly'
p372
I4
sS'latter'
p373
I3
sS'left'
p374
I5
sS'summer'
p375
I2
sS'less'
p376
I6
sS'being'
p377
I7
sS'money'
p378
I2
sS'ludicrous'
p379
I2
sS'recycled'
p380
I2
sS'punchlines'
p381
I3
sS'yet'
p382
I3
sS'superficial'
p383
I3
sS'cut'
p384
I2
sS'clueless'
p385
I2
sS'ham'
p386
I2
sS'character'
p387
I2
sS'pitiful'
p388
I2
sS'has'
p389
I8
sS'real'
p390
I4
sS'around'
p391
I4
sS'lacking'
p392
I2
sS'ops'
p393
I2
sS'possible'
p394
I2
sS'formulaic'
p395
I2
sS'know'
p396
I3
sS'stunt'
p397
I2
sS'apart'
p398
I2
sS'necessary'
p399
I2
sS'like'
p400
I21
sS'loses'
p401
I3
sS'audience'
p402
I4
sS'nose'
p403
I2
sS'right'
p404
I3
sS'old'
p405
I7
sS'often'
p406
I2
sS'people'
p407
I7
sS'begin'
p408
I3
sS'bore'
p409
I2
sS'humor'
p410
I2
sS'everything'
p411
I2
sS'behave'
p412
I2
sS'resolutely'
p413
I3
sS'core'
p414
I4
sS'noise'
p415
I2
sS'run'
p416
I2
sS'seconds'
p417
I3
sS'credits'
p418
I2
sS'step'
p419
I2
sS'cinematic'
p420
I2
sS'worthy'
p421
I2
sS'losing'
p422
I3
sS'shocking'
p423
I2
sS'anything'
p424
I6
sS'getting'
p425
I2
sS'surrender'
p426
I3
sS'deserves'
p427
I2
sS'stand'
p428
I3
sS'act'
p429
I2
sS'muzak'
p430
I3
sS'own'
p431
I5
sS'incoherence'
p432
I3
sS'litmus'
p433
I2
sS'down'
p434
I6
sS'clams'
p435
I3
sS'pointless'
p436
I3
sS'rushed'
p437
I2
sS'long'
p438
I7
sS'low'
p439
I3
sS'lot'
p440
I3
sS'biggest'
p441
I3
sS'bored'
p442
I2
sS'head'
p443
I4
sS'complete'
p444
I4
sS'something'
p445
I6
sS'editing'
p446
I4
sS'sequel'
p447
I5
sS'scouse'
p448
I2
sS'failure'
p449
I4
sS'talents'
p450
I3
sS'manipulative'
p451
I2
sS'hopes'
p452
I2
sS'trying'
p453
I2
sS'dull'
p454
I2
sS'made'
p455
I10
sS'wretchedly'
p456
I2
sS'emotional'
p457
I3
sS'problem'
p458
I2
sS'piece'
p459
I2
sS'minutes'
p460
I14
sS'adults'
p461
I2
sS'cinema'
p462
I2
sS'holes'
p463
I2
sS'accents'
p464
I3
sS'dialogue'
p465
I4
sS'imagination'
p466
I3
sS'single'
p467
I2
sS'walked'
p468
I3
sS'film'
p469
I22
sS'inc'
p470
I2
sS'tedious'
p471
I3
sS'again'
p472
I3
sS'puzzling'
p473
I2
sS'offensive'
p474
I2
sS'actor'
p475
I2
sS'test'
p476
I4
sS'reckless'
p477
I2
sS'poor'
p478
I2
sS'picture'
p479
I4
sS'narrative'
p480
I6
sS'problems'
p481
I3
sS'utterly'
p482
I2
sS'dullest'
p483
I2
sS'unfunny'
p484
I6
sS'desert'
p485
I2
sS'suffers'
p486
I2
sS'values'
p487
I2
sS'pseudo'
p488
I2
sS'together'
p489
I4
sS'having'
p490
I2
sS'cohesion'
p491
I2
sS'time'
p492
I8
sS'serious'
p493
I3
sS'backward'
p494
I2
sS'baked'
p495
I2
sS'original'
p496
I4
sS'paced'
p497
I3
s.