(dp0
S'breadth'
p1
I2
sS'forget'
p2
I2
sS'remarkable'
p3
I3
sS'walking'
p4
I2
sS'suspenseful'
p5
I3
sS'four'
p6
I2
sS'entwined'
p7
I2
sS'battle'
p8
I2
sS'follow'
p9
I2
sS'remarkably'
p10
I4
sS'idealism'
p11
I2
sS'aragorn'
p12
I2
sS'certainly'
p13
I4
sS'environment'
p14
I2
sS'amaze'
p15
I2
sS'must'
p16
I2
sS'does'
p17
I6
sS'pleasing'
p18
I2
sS'worth'
p19
I3
sS'lrb'
p20
I7
sS'sitting'
p21
I4
sS'very'
p22
I6
sS'slickest'
p23
I2
sS'frailty'
p24
I4
sS'margarita'
p25
I2
sS'enjoyable'
p26
I2
sS'school'
p27
I2
sS'heaven'
p28
I2
sS'impressive'
p29
I3
sS'benevolent'
p30
I2
sS'shock'
p31
I3
sS'sand'
p32
I2
sS'engrossing'
p33
I4
sS'small'
p34
I2
sS'delightfully'
p35
I2
sS'triumph'
p36
I2
sS'upper'
p37
I3
sS'spiritual'
p38
I2
sS'wallflower'
p39
I2
sS'visuals'
p40
I3
sS'rrb'
p41
I7
sS'whimsical'
p42
I2
sS'arwen'
p43
I2
sS'elegant'
p44
I2
sS'faithful'
p45
I2
sS'meditation'
p46
I2
sS'neo'
p47
I2
sS'witnessed'
p48
I2
sS'deeply'
p49
I4
sS'emotions'
p50
I2
sS'consistently'
p51
I4
sS'new'
p52
I4
sS'exercise'
p53
I2
sS'told'
p54
I2
sS'edited'
p55
I2
sS'full'
p56
I4
sS'simultaneously'
p57
I4
sS'grandparents'
p58
I2
sS'never'
p59
I7
sS'portrays'
p60
I2
sS'delivering'
p61
I2
sS'entertain'
p62
I2
sS'strong'
p63
I2
sS'dry'
p64
I2
sS'great'
p65
I15
sS'standout'
p66
I2
sS'uplifting'
p67
I2
sS'hideously'
p68
I2
sS'brilliant'
p69
I7
sS'exceptionally'
p70
I2
sS'piercing'
p71
I2
sS'creepy'
p72
I4
sS'bittersweet'
p73
I4
sS'masterpiece'
p74
I4
sS'makes'
p75
I3
sS'grandkids'
p76
I2
sS'breathtaking'
p77
I2
sS'love'
p78
I4
sS'family'
p79
I9
sS'heart'
p80
I4
sS'highly'
p81
I5
sS'wit'
p82
I4
sS'aimed'
p83
I2
sS'crime'
p84
I5
sS'originality'
p85
I2
sS'vivid'
p86
I2
sS'remains'
p87
I3
sS'forcefully'
p88
I2
sS'france'
p89
I2
sS'music'
p90
I5
sS'gorgeous'
p91
I2
sS'films'
p92
I2
sS'themselves'
p93
I2
sS'harrowing'
p94
I2
sS'until'
p95
I2
sS'more'
p96
I8
sS'flat'
p97
I2
sS'clever'
p98
I4
sS'evening'
p99
I2
sS'successful'
p100
I2
sS'oscar'
p101
I2
sS'charming'
p102
I3
sS'excuse'
p103
I2
sS'visual'
p104
I3
sS'warm'
p105
I4
sS'goods'
p106
I3
sS'known'
p107
I2
sS'iii'
p108
I2
sS'women'
p109
I2
sS'hour'
p110
I2
sS'ride'
p111
I3
sS'clients'
p112
I2
sS'movies'
p113
I7
sS'evolved'
p114
I2
sS'embrace'
p115
I2
sS'male'
p116
I2
sS'laughter'
p117
I3
sS'cussing'
p118
I2
sS'history'
p119
I2
sS'beautiful'
p120
I4
sS'spy'
p121
I5
sS'delivers'
p122
I5
sS'pieces'
p123
I2
sS'something'
p124
I2
sS'documenting'
p125
I2
sS'sense'
p126
I2
sS'motion'
p127
I3
sS'exoticism'
p128
I2
sS'end'
p129
I2
sS'daring'
p130
I2
sS'rather'
p131
I2
sS'exceptional'
p132
I4
sS'mike'
p133
I2
sS'feature'
p134
I6
sS'compassion'
p135
I2
sS'hot'
p136
I2
sS'fourth'
p137
I2
sS'comedy'
p138
I14
sS'intelligent'
p139
I4
sS'profile'
p140
I2
sS'levy'
p141
I2
sS'explores'
p142
I2
sS'funny'
p143
I14
sS'may'
p144
I3
sS'sacrifice'
p145
I2
sS'par'
p146
I2
sS'collection'
p147
I2
sS'adventure'
p148
I2
sS'fits'
p149
I2
sS'such'
p150
I4
sS'dumbo'
p151
I2
sS'nomination'
p152
I2
sS'man'
p153
I4
sS'ambiguous'
p154
I2
sS'apocalypse'
p155
I2
sS'natural'
p156
I2
sS'splendid'
p157
I2
sS'effective'
p158
I2
sS'counter'
p159
I2
sS'tale'
p160
I5
sS'chief'
p161
I2
sS'funniest'
p162
I2
sS'order'
p163
I2
sS'executed'
p164
I3
sS'unfolds'
p165
I2
sS'insight'
p166
I3
sS'midnight'
p167
I4
sS'satisfied'
p168
I2
sS'years'
p169
I6
sS'playful'
p170
I2
sS'telling'
p171
I6
sS'through'
p172
I2
sS'pitch'
p173
I2
sS'budding'
p174
I2
sS'visceral'
p175
I2
sS'perfect'
p176
I4
sS'style'
p177
I3
sS'comedic'
p178
I2
sS'call'
p179
I2
sS'interesting'
p180
I4
sS'shudder'
p181
I2
sS'grade'
p182
I2
sS'offers'
p183
I5
sS'compelling'
p184
I2
sS'astonish'
p185
I2
sS'drumline'
p186
I2
sS'cool'
p187
I2
sS'might'
p188
I4
sS'pleasurable'
p189
I2
sS'good'
p190
I14
sS'impulses'
p191
I2
sS'conversations'
p192
I2
sS'spell'
p193
I2
sS'band'
p194
I2
sS'walls'
p195
I2
sS'touching'
p196
I2
sS'not'
p197
I8
sS'silver'
p198
I2
sS'viewers'
p199
I2
sS'represents'
p200
I2
sS'opera'
p201
I2
sS'always'
p202
I6
sS'debut'
p203
I5
sS'delightful'
p204
I2
sS'grandeur'
p205
I3
sS'truth'
p206
I2
sS'each'
p207
I8
sS'done'
p208
I3
sS'beneath'
p209
I2
sS'friendship'
p210
I2
sS'lively'
p211
I2
sS'doing'
p212
I2
sS'energy'
p213
I4
sS'hard'
p214
I2
sS'diane'
p215
I2
sS'spider'
p216
I2
sS'engaging'
p217
I7
sS'society'
p218
I2
sS'thirteen'
p219
I2
sS'girl'
p220
I4
sS'stitch'
p221
I2
sS'god'
p222
I2
sS'since'
p223
I2
sS'fellowship'
p224
I2
sS'acting'
p225
I4
sS'humanistic'
p226
I2
sS'hilarious'
p227
I11
sS'suggesting'
p228
I2
sS'dominate'
p229
I2
sS'monster'
p230
I2
sS'infidelity'
p231
I2
sS'frank'
p232
I2
sS'story'
p233
I10
sS'extraordinary'
p234
I3
sS'base'
p235
I2
sS'care'
p236
I3
sS'broaches'
p237
I2
sS'echelons'
p238
I2
sS'created'
p239
I2
sS'british'
p240
I2
sS'keep'
p241
I2
sS'creates'
p242
I2
sS'thing'
p243
I3
sS'american'
p244
I3
sS'chills'
p245
I4
sS'solidly'
p246
I2
sS'features'
p247
I2
sS'feel'
p248
I7
sS'powerful'
p249
I5
sS'scene'
p250
I2
sS'americans'
p251
I2
sS'specifically'
p252
I2
sS'delicious'
p253
I2
sS'gasp'
p254
I2
sS'carry'
p255
I2
sS'comic'
p256
I3
sS'little'
p257
I3
sS'interviews'
p258
I2
sS'vulgar'
p259
I2
sS'twisted'
p260
I3
sS'anyone'
p261
I2
sS'wonderful'
p262
I4
sS'time'
p263
I5
sS'hollywood'
p264
I2
sS'weave'
p265
I2
sS'final'
p266
I2
sS'painful'
p267
I3
sS'urban'
p268
I2
sS'rewards'
p269
I2
sS'uncommonly'
p270
I2
sS'somewhat'
p271
I2
sS'fuzzy'
p272
I2
sS'white'
p273
I3
sS'updating'
p274
I2
sS'kind'
p275
I3
sS'grew'
p276
I2
sS'namesake'
p277
I2
sS'rival'
p278
I2
sS'scenes'
p279
I4
sS'spirited'
p280
I2
sS'appealing'
p281
I2
sS'shyamalan'
p282
I2
sS'uncanny'
p283
I2
sS'feeling'
p284
I2
sS'solely'
p285
I2
sS'damned'
p286
I2
sS'imaginative'
p287
I4
sS'sees'
p288
I2
sS'outstanding'
p289
I2
sS'turned'
p290
I2
sS'gently'
p291
I2
sS'reno'
p292
I2
sS'himself'
p293
I2
sS'suspense'
p294
I2
sS'portrait'
p295
I6
sS'bigelow'
p296
I2
sS'theology'
p297
I2
sS'afraid'
p298
I2
sS'genuine'
p299
I2
sS'skillful'
p300
I2
sS'thoroughly'
p301
I2
sS'lilo'
p302
I2
sS'terrific'
p303
I3
sS'animation'
p304
I3
sS'amusing'
p305
I2
sS'laughed'
p306
I2
sS'performance'
p307
I9
sS'hedonistic'
p308
I2
sS'bruce'
p309
I2
sS'knew'
p310
I2
sS'cinematic'
p311
I3
sS'involving'
p312
I2
sS'charm'
p313
I2
sS'expertly'
p314
I2
sS'awe'
p315
I3
sS'class'
p316
I3
sS'thriller'
p317
I9
sS'refreshing'
p318
I3
sS'surprising'
p319
I6
sS'performances'
p320
I16
sS'prevails'
p321
I2
sS'sometimes'
p322
I4
sS'gracefully'
p323
I2
sS'face'
p324
I2
sS'astonishing'
p325
I3
sS'propels'
p326
I2
sS'absurd'
p327
I2
sS'entertaining'
p328
I6
sS'blend'
p329
I2
sS'atmosphere'
p330
I3
sS'shot'
p331
I2
sS'absorbing'
p332
I2
sS'charles'
p333
I2
sS'contemporary'
p334
I2
sS'ending'
p335
I2
sS'bring'
p336
I2
sS'fine'
p337
I2
sS'find'
p338
I3
sS'depth'
p339
I2
sS'inspiring'
p340
I3
sS'finally'
p341
I2
sS'spite'
p342
I2
sS'earned'
p343
I2
sS'justice'
p344
I2
sS'winner'
p345
I3
sS'written'
p346
I3
sS'should'
p347
I2
sS'moments'
p348
I4
sS'tears'
p349
I2
sS'bliss'
p350
I2
sS'touched'
p351
I2
sS'pretty'
p352
I3
sS'gods'
p353
I2
sS'hit'
p354
I2
sS'watching'
p355
I2
sS'beat'
p356
I2
sS'goosebumps'
p357
I2
sS'watch'
p358
I3
sS'watercolor'
p359
I2
sS'made'
p360
I4
sS'inuit'
p361
I2
sS'timing'
p362
I2
sS'during'
p363
I2
sS'gem'
p364
I2
sS'builds'
p365
I3
sS'artist'
p366
I2
sS'nicely'
p367
I2
sS'mcculloch'
p368
I2
sS'timeless'
p369
I2
sS'greene'
p370
I2
sS'stuff'
p371
I2
sS'disney'
p372
I3
sS'raunchy'
p373
I2
sS'forster'
p374
I2
sS'gibson'
p375
I2
sS'vision'
p376
I2
sS'guessing'
p377
I3
sS'inventive'
p378
I2
sS'fascinating'
p379
I8
sS'seas'
p380
I2
sS'potent'
p381
I2
sS'sex'
p382
I2
sS'college'
p383
I2
sS'christian'
p384
I2
sS'luminous'
p385
I2
sS'comfort'
p386
I2
sS'prim'
p387
I2
sS'still'
p388
I4
sS'unsettling'
p389
I2
sS'movie'
p390
I22
sS'away'
p391
I2
sS'demons'
p392
I2
sS'superb'
p393
I3
sS'enough'
p394
I4
sS'mel'
p395
I2
sS'stories'
p396
I4
sS'neither'
p397
I2
sS'across'
p398
I4
sS'men'
p399
I4
sS'ability'
p400
I3
sS'missing'
p401
I2
sS'screen'
p402
I3
sS'attention'
p403
I2
sS'deliver'
p404
I2
sS'inextricably'
p405
I2
sS'job'
p406
I3
sS'conned'
p407
I2
sS'emotional'
p408
I6
sS'melodrama'
p409
I2
sS'lyrical'
p410
I2
sS'both'
p411
I2
sS'commands'
p412
I2
sS'many'
p413
I4
sS'minds'
p414
I4
sS'foreign'
p415
I2
sS'sensitive'
p416
I2
sS'finds'
p417
I2
sS'otherwise'
p418
I2
sS'simple'
p419
I2
sS'sweet'
p420
I5
sS'acted'
p421
I4
sS'period'
p422
I2
sS'crafted'
p423
I6
sS'majestic'
p424
I3
sS'frenetic'
p425
I2
sS'throughout'
p426
I3
sS'better'
p427
I2
sS'riled'
p428
I2
sS'acts'
p429
I2
sS'political'
p430
I3
sS'three'
p431
I3
sS'been'
p432
I2
sS'charisma'
p433
I3
sS'much'
p434
I10
sS'stanzas'
p435
I2
sS'interest'
p436
I2
sS'expected'
p437
I2
sS'territory'
p438
I2
sS'warmth'
p439
I2
sS'dialogue'
p440
I3
sS'gorgeously'
p441
I2
sS'spectrum'
p442
I2
sS'dramatic'
p443
I5
sS'slap'
p444
I2
sS'talent'
p445
I2
sS'glides'
p446
I2
sS'spirit'
p447
I2
sS'those'
p448
I5
sS'multi'
p449
I2
sS'crumb'
p450
I2
sS'solid'
p451
I3
sS'decades'
p452
I2
sS'pace'
p453
I2
sS'while'
p454
I2
sS'applies'
p455
I2
sS'fun'
p456
I6
sS'chilling'
p457
I2
sS'pack'
p458
I2
sS'satisfying'
p459
I6
sS'almost'
p460
I3
sS'sincere'
p461
I2
sS'insanely'
p462
I3
sS'surprisingly'
p463
I6
sS'commander'
p464
I2
sS'itself'
p465
I2
sS'audiences'
p466
I2
sS'experience'
p467
I8
sS'exterior'
p468
I2
sS'beautifully'
p469
I5
sS'pathology'
p470
I2
sS'engages'
p471
I2
sS'augustinian'
p472
I2
sS'worry'
p473
I2
sS'around'
p474
I9
sS'capture'
p475
I4
sS'communal'
p476
I2
sS'pat'
p477
I2
sS'breathtakingly'
p478
I2
sS'make'
p479
I4
sS'poetry'
p480
I2
sS'cooly'
p481
I2
sS'strange'
p482
I2
sS'gets'
p483
I2
sS'privileged'
p484
I2
sS'conflict'
p485
I2
sS'persona'
p486
I2
sS'emotionally'
p487
I2
sS'deft'
p488
I3
sS'chaiken'
p489
I2
sS'director'
p490
I6
sS'moving'
p491
I9
sS'dashing'
p492
I2
sS'fierce'
p493
I2
sS'frequently'
p494
I2
sS'impeccable'
p495
I2
sS'kid'
p496
I2
sS'characters'
p497
I3
sS'cultural'
p498
I3
sS'edgy'
p499
I3
sS'thought'
p500
I3
sS'without'
p501
I9
sS'hearts'
p502
I4
sS'summer'
p503
I5
sS'endeavour'
p504
I2
sS'discord'
p505
I2
sS'being'
p506
I4
sS'captures'
p507
I2
sS'profoundly'
p508
I3
sS'sweeping'
p509
I2
sS'multiplex'
p510
I2
sS'human'
p511
I3
sS'had'
p512
I6
sS'likeable'
p513
I2
sS'adventurous'
p514
I2
sS'add'
p515
I3
sS'recreates'
p516
I2
sS'treatment'
p517
I2
sS'has'
p518
I17
sS'humanity'
p519
I2
sS'surprised'
p520
I2
sS'take'
p521
I3
sS'real'
p522
I3
sS'aspects'
p523
I2
sS'captivating'
p524
I3
sS'spectacular'
p525
I2
sS'easily'
p526
I2
sS'read'
p527
I2
sS'big'
p528
I2
sS'auspicious'
p529
I2
sS'game'
p530
I3
sS'background'
p531
I2
sS'world'
p532
I4
sS'grim'
p533
I2
sS'dreams'
p534
I2
sS'like'
p535
I9
sS'oddly'
p536
I2
sS'audience'
p537
I4
sS'provoking'
p538
I2
sS'night'
p539
I2
sS'chick'
p540
I2
sS'works'
p541
I2
sS'unabashedly'
p542
I2
sS'right'
p543
I3
sS'often'
p544
I3
sS'obsessions'
p545
I2
sS'people'
p546
I3
sS'absolutely'
p547
I2
sS'footage'
p548
I2
sS'creation'
p549
I2
sS'meara'
p550
I2
sS'recovery'
p551
I2
sS'images'
p552
I2
sS'liking'
p553
I2
sS'ourselves'
p554
I2
sS'slice'
p555
I2
sS'humor'
p556
I5
sS'richer'
p557
I2
sS'riveting'
p558
I3
sS'demonstrates'
p559
I4
sS'raffish'
p560
I2
sS'best'
p561
I11
sS'cast'
p562
I5
sS'witty'
p563
I4
sS'snappy'
p564
I2
sS'rewarding'
p565
I2
sS'campfire'
p566
I4
sS'ethos'
p567
I2
sS'epic'
p568
I3
sS'idealistic'
p569
I2
sS'credits'
p570
I3
sS'innocence'
p571
I2
sS'losing'
p572
I2
sS'memorable'
p573
I5
sS'willies'
p574
I4
sS'intense'
p575
I2
sS'stone'
p576
I2
sS'punny'
p577
I2
sS'drama'
p578
I10
sS'documentary'
p579
I8
sS'seeing'
p580
I5
sS'burning'
p581
I2
sS'creativity'
p582
I2
sS'vulgarity'
p583
I2
sS'within'
p584
I2
sS'down'
p585
I4
sS'finely'
p586
I2
sS'machismo'
p587
I2
sS'female'
p588
I5
sS'cultivated'
p589
I2
sS'shoots'
p590
I2
sS'admirable'
p591
I2
sS'existed'
p592
I2
sS'fast'
p593
I2
sS'deception'
p594
I2
sS'amazingly'
p595
I2
sS'long'
p596
I2
sS'indoor'
p597
I2
sS'stuck'
p598
I2
sS'achievement'
p599
I3
sS'wonderfully'
p600
I3
sS'bored'
p601
I2
sS'happy'
p602
I2
sS'hookers'
p603
I2
sS'stooping'
p604
I2
sS'fundamentals'
p605
I2
sS'directing'
p606
I2
sS'idea'
p607
I3
sS'coldest'
p608
I2
sS'line'
p609
I2
sS'lovely'
p610
I2
sS'romantic'
p611
I6
sS'heartwarming'
p612
I2
sS'exploration'
p613
I2
sS'charmer'
p614
I2
sS'demonstrate'
p615
I2
sS'piece'
p616
I2
sS'similar'
p617
I2
sS'age'
p618
I2
sS'penetrating'
p619
I2
sS'proud'
p620
I2
sS'constant'
p621
I2
sS'taste'
p622
I2
sS'minutes'
p623
I2
sS'life'
p624
I2
sS'covers'
p625
I2
sS'imagination'
p626
I2
sS'proves'
p627
I4
sS'believable'
p628
I2
sS'evocative'
p629
I2
sS'tremble'
p630
I2
sS'film'
p631
I36
sS'constructed'
p632
I2
sS'puzzling'
p633
I2
sS'eerie'
p634
I3
sS'detail'
p635
I4
sS'handed'
p636
I2
sS'intellect'
p637
I2
sS'book'
p638
I2
sS'actors'
p639
I5
sS'incredibly'
p640
I3
sS'roll'
p641
I3
sS'picture'
p642
I3
sS'draw'
p643
I2
sS'energetic'
p644
I2
sS'separate'
p645
I2
sS'finale'
p646
I2
sS'important'
p647
I2
sS'scores'
p648
I2
sS'mamet'
p649
I2
sS'filmmaker'
p650
I3
sS'sides'
p651
I2
sS'psychology'
p652
I2
sS'ago'
p653
I3
sS'lane'
p654
I2
sS'examination'
p655
I2
sS'ranks'
p656
I2
sS'outing'
p657
I2
sS'together'
p658
I2
sS'directors'
p659
I2
sS'sobering'
p660
I2
sS'hugely'
p661
I3
sS'phenomenal'
p662
I2
sS'far'
p663
I2
sS'serious'
p664
I2
sS'once'
p665
I2
sS'original'
p666
I5
sS'imax'
p667
I2
s.