(dp0
S'breadth'
p1
I2
sS'concept'
p2
I3
sS'forget'
p3
I2
sS'remarkable'
p4
I3
sS'skip'
p5
I2
sS'lack'
p6
I3
sS'atmosphere'
p7
I3
sS'suspenseful'
p8
I3
sS'four'
p9
I5
sS'entwined'
p10
I2
sS'manages'
p11
I3
sS'battle'
p12
I3
sS'shot'
p13
I2
sS'remarkably'
p14
I4
sS'children'
p15
I2
sS'poorly'
p16
I8
sS'idealism'
p17
I2
sS'certainly'
p18
I4
sS'inspiring'
p19
I3
sS'fellowship'
p20
I2
sS'daring'
p21
I2
sS'acting'
p22
I12
sS'originality'
p23
I2
sS'amaze'
p24
I2
sS'finally'
p25
I2
sS'does'
p26
I19
sS'pace'
p27
I3
sS'ridiculousness'
p28
I2
sS'pleasing'
p29
I2
sS'worth'
p30
I7
sS'pay'
p31
I2
sS'lrb'
p32
I12
sS'worse'
p33
I5
sS'sitting'
p34
I5
sS'compassion'
p35
I2
sS'sloppy'
p36
I2
sS'slickest'
p37
I2
sS'screenwriting'
p38
I2
sS'every'
p39
I4
sS'formula'
p40
I2
sS'frailty'
p41
I4
sS'slapdash'
p42
I3
sS'minute'
p43
I5
sS'margarita'
p44
I2
sS'capture'
p45
I4
sS'enjoyable'
p46
I2
sS'school'
p47
I4
sS'heaven'
p48
I2
sS'impressive'
p49
I3
sS'made'
p50
I14
sS'benevolent'
p51
I2
sS'raffish'
p52
I2
sS'shock'
p53
I3
sS'leave'
p54
I2
sS'solid'
p55
I3
sS'sand'
p56
I2
sS'engrossing'
p57
I4
sS'science'
p58
I2
sS'small'
p59
I2
sS'delightfully'
p60
I2
sS'guy'
p61
I3
sS'triumph'
p62
I2
sS'enjoy'
p63
I2
sS'upper'
p64
I3
sS'spiritual'
p65
I2
sS'melodrama'
p66
I2
sS'gripping'
p67
I2
sS'tired'
p68
I2
sS'visuals'
p69
I3
sS'rrb'
p70
I12
sS'whimsical'
p71
I2
sS'arwen'
p72
I2
sS'elegant'
p73
I2
sS'erotic'
p74
I2
sS'noise'
p75
I2
sS'follow'
p76
I2
sS'pretentious'
p77
I2
sS'meditation'
p78
I2
sS'addition'
p79
I2
sS'neo'
p80
I2
sS'cast'
p81
I7
sS'sun'
p82
I3
sS'idealistic'
p83
I2
sS'emotions'
p84
I2
sS'consistently'
p85
I4
sS'rotten'
p86
I2
sS'version'
p87
I3
sS'goes'
p88
I5
sS'new'
p89
I7
sS'ever'
p90
I7
sS'disney'
p91
I3
sS'told'
p92
I2
sS'edited'
p93
I2
sS'full'
p94
I8
sS'simultaneously'
p95
I4
sS'grandparents'
p96
I2
sS'men'
p97
I4
sS'giant'
p98
I2
sS'here'
p99
I5
sS'delivering'
p100
I2
sS'hours'
p101
I3
sS'portrait'
p102
I6
sS'entertain'
p103
I2
sS'studio'
p104
I2
sS'unrewarding'
p105
I3
sS'alone'
p106
I2
sS'suckers'
p107
I2
sS'along'
p108
I2
sS'strong'
p109
I3
sS'irritating'
p110
I2
sS'change'
p111
I3
sS'extreme'
p112
I3
sS'dry'
p113
I3
sS'waste'
p114
I2
sS'great'
p115
I16
sS'substance'
p116
I2
sS'standout'
p117
I2
sS'uplifting'
p118
I2
sS'hideously'
p119
I2
sS'brilliant'
p120
I7
sS'involved'
p121
I3
sS'exceptionally'
p122
I2
sS'piercing'
p123
I2
sS'experience'
p124
I11
sS'bittersweet'
p125
I4
sS'women'
p126
I3
sS'dashing'
p127
I2
sS'action'
p128
I9
sS'loses'
p129
I3
sS'makes'
p130
I4
sS'nowhere'
p131
I2
sS'grandkids'
p132
I2
sS'control'
p133
I3
sS'breathtaking'
p134
I2
sS'love'
p135
I5
sS'family'
p136
I9
sS'spy'
p137
I5
sS'worthy'
p138
I3
sS'highly'
p139
I5
sS'psychological'
p140
I2
sS'patience'
p141
I2
sS'wit'
p142
I4
sS'aimed'
p143
I2
sS'resolutions'
p144
I2
sS'should'
p145
I4
sS'witnessed'
p146
I2
sS'environment'
p147
I2
sS'crap'
p148
I4
sS'vivid'
p149
I2
sS'sake'
p150
I2
sS'forcefully'
p151
I2
sS'france'
p152
I2
sS'few'
p153
I3
sS'music'
p154
I5
sS'wondering'
p155
I2
sS'memory'
p156
I2
sS'films'
p157
I8
sS'themselves'
p158
I2
sS'harrowing'
p159
I2
sS'tell'
p160
I2
sS'more'
p161
I26
sS'flat'
p162
I5
sS'clever'
p163
I4
sS'knows'
p164
I2
sS'scary'
p165
I2
sS'successful'
p166
I2
sS'oscar'
p167
I2
sS'company'
p168
I2
sS'clients'
p169
I2
sS'charming'
p170
I4
sS'excuse'
p171
I2
sS'visual'
p172
I4
sS'sobering'
p173
I2
sS'surface'
p174
I2
sS'loose'
p175
I3
sS'known'
p176
I2
sS'hole'
p177
I2
sS'pieces'
p178
I2
sS'iii'
p179
I2
sS'must'
p180
I3
sS'none'
p181
I3
sS'works'
p182
I2
sS'word'
p183
I2
sS'room'
p184
I3
sS'hour'
p185
I6
sS'car'
p186
I2
sS'ride'
p187
I3
sS'blade'
p188
I2
sS'soul'
p189
I3
sS'movies'
p190
I10
sS'sour'
p191
I2
sS'indescribably'
p192
I3
sS'thin'
p193
I3
sS'evolved'
p194
I2
sS'making'
p195
I2
sS'male'
p196
I2
sS'laughter'
p197
I3
sS'cussing'
p198
I2
sS'slightest'
p199
I2
sS'history'
p200
I5
sS'beautiful'
p201
I4
sS'heart'
p202
I4
sS'ingenuity'
p203
I2
sS'indie'
p204
I2
sS'laughs'
p205
I3
sS'sitcom'
p206
I3
sS'imitation'
p207
I2
sS'documenting'
p208
I2
sS'sense'
p209
I4
sS'lacks'
p210
I2
sS'viewers'
p211
I3
sS'mainstream'
p212
I2
sS'motion'
p213
I3
sS'needs'
p214
I2
sS'redundancy'
p215
I3
sS'end'
p216
I7
sS'recovery'
p217
I2
sS'delivers'
p218
I5
sS'deserves'
p219
I2
sS'rather'
p220
I5
sS'acts'
p221
I2
sS'mike'
p222
I2
sS'feature'
p223
I6
sS'far'
p224
I5
sS'hot'
p225
I2
sS'hop'
p226
I2
sS'instead'
p227
I2
sS'comedy'
p228
I23
sS'intelligent'
p229
I4
sS'visceral'
p230
I2
sS'levy'
p231
I2
sS'explores'
p232
I2
sS'intended'
p233
I2
sS'huge'
p234
I2
sS'may'
p235
I3
sS'demonstrates'
p236
I4
sS'sacrifice'
p237
I2
sS'communal'
p238
I2
sS'collection'
p239
I2
sS'less'
p240
I6
sS'designed'
p241
I2
sS'coming'
p242
I3
sS'date'
p243
I3
sS'such'
p244
I6
sS'dumbo'
p245
I2
sS'destructive'
p246
I2
sS'nomination'
p247
I2
sS'bleak'
p248
I2
sS'man'
p249
I5
sS'exoticism'
p250
I2
sS'contrived'
p251
I4
sS'short'
p252
I2
sS'natural'
p253
I2
sS'splendid'
p254
I2
sS'effective'
p255
I2
sS'nonexistent'
p256
I2
sS'sit'
p257
I6
sS'redundant'
p258
I2
sS'tale'
p259
I6
sS'chief'
p260
I2
sS'funniest'
p261
I2
sS'improvised'
p262
I2
sS'keeps'
p263
I2
sS'worst'
p264
I6
sS'solidly'
p265
I2
sS'order'
p266
I2
sS'executed'
p267
I3
sS'unfolds'
p268
I3
sS'muzak'
p269
I3
sS'developed'
p270
I2
sS'insight'
p271
I3
sS'midnight'
p272
I4
sS'satisfied'
p273
I2
sS'years'
p274
I9
sS'playful'
p275
I2
sS'awful'
p276
I2
sS'paper'
p277
I2
sS'through'
p278
I13
sS'pitch'
p279
I2
sS'budding'
p280
I2
sS'still'
p281
I6
sS'operative'
p282
I2
sS'before'
p283
I4
sS'perfect'
p284
I4
sS'style'
p285
I4
sS'conned'
p286
I2
sS'broiling'
p287
I3
sS'burning'
p288
I2
sS'fit'
p289
I3
sS'call'
p290
I2
sS'interesting'
p291
I8
sS'dramatic'
p292
I6
sS'jim'
p293
I2
sS'better'
p294
I3
sS'feel'
p295
I14
sS'production'
p296
I3
sS'compelling'
p297
I2
sS'astonish'
p298
I2
sS'drumline'
p299
I2
sS'cool'
p300
I3
sS'admirable'
p301
I2
sS'overcome'
p302
I2
sS'pleasurable'
p303
I2
sS'evening'
p304
I2
sS'fourth'
p305
I2
sS'chills'
p306
I5
sS'impulses'
p307
I2
sS'conversations'
p308
I2
sS'material'
p309
I5
sS'scene'
p310
I3
sS'band'
p311
I2
sS'walls'
p312
I2
sS'touching'
p313
I2
sS'course'
p314
I2
sS'intellectual'
p315
I2
sS'base'
p316
I2
sS'half'
p317
I6
sS'not'
p318
I22
sS'conformity'
p319
I2
sS'downright'
p320
I3
sS'silver'
p321
I2
sS'nor'
p322
I2
sS'represents'
p323
I2
sS'gets'
p324
I6
sS'opera'
p325
I3
sS'always'
p326
I6
sS'amateurish'
p327
I3
sS'debut'
p328
I6
sS'good'
p329
I22
sS'grandeur'
p330
I3
sS'truth'
p331
I3
sS'each'
p332
I8
sS'done'
p333
I3
sS'entirely'
p334
I5
sS'friendship'
p335
I2
sS'last'
p336
I6
sS'profile'
p337
I2
sS'studios'
p338
I2
sS'everyone'
p339
I3
sS'delicious'
p340
I2
sS'doing'
p341
I2
sS'series'
p342
I2
sS'energy'
p343
I5
sS'stooping'
p344
I2
sS'diane'
p345
I2
sS'spider'
p346
I2
sS'engaging'
p347
I7
sS'bland'
p348
I3
sS'thirteen'
p349
I2
sS'stealing'
p350
I3
sS'girl'
p351
I6
sS'beyond'
p352
I2
sS'message'
p353
I2
sS'special'
p354
I2
sS'might'
p355
I11
sS'ultimately'
p356
I2
sS'jackson'
p357
I2
sS'stitch'
p358
I2
sS'actor'
p359
I2
sS'god'
p360
I2
sS'since'
p361
I5
sS'looking'
p362
I2
sS'mess'
p363
I4
sS'numbingly'
p364
I3
sS'humanistic'
p365
I2
sS'hilarious'
p366
I11
sS'suggesting'
p367
I2
sS'got'
p368
I2
sS'tiresome'
p369
I2
sS'dominate'
p370
I2
sS'ambiguous'
p371
I2
sS'monster'
p372
I4
sS'infidelity'
p373
I2
sS'frank'
p374
I2
sS'story'
p375
I18
sS'quite'
p376
I2
sS'extraordinary'
p377
I3
sS'completely'
p378
I2
sS'masterpiece'
p379
I4
sS'surely'
p380
I2
sS'imagine'
p381
I5
sS'put'
p382
I4
sS'wanted'
p383
I2
sS'care'
p384
I7
sS'broaches'
p385
I2
sS'echelons'
p386
I2
sS'shocking'
p387
I2
sS'created'
p388
I2
sS'starts'
p389
I2
sS'days'
p390
I3
sS'british'
p391
I2
sS'keep'
p392
I2
sS'creates'
p393
I2
sS'thing'
p394
I5
sS'american'
p395
I4
sS'apocalypse'
p396
I2
sS'loud'
p397
I3
sS'adventure'
p398
I2
sS'flick'
p399
I2
sS'vulgar'
p400
I3
sS'features'
p401
I2
sS'warmth'
p402
I2
sS'grade'
p403
I2
sS'powerful'
p404
I5
sS'inauthentic'
p405
I2
sS'soothing'
p406
I3
sS'fits'
p407
I2
sS'wallflower'
p408
I2
sS'americans'
p409
I2
sS'fast'
p410
I3
sS'another'
p411
I4
sS'gasp'
p412
I2
sS'carry'
p413
I2
sS'impossible'
p414
I3
sS'comic'
p415
I3
sS'quality'
p416
I2
sS'concert'
p417
I2
sS'little'
p418
I11
sS'cynical'
p419
I2
sS'script'
p420
I5
sS'murky'
p421
I2
sS'interviews'
p422
I2
sS'structured'
p423
I3
sS'twisted'
p424
I3
sS'fiction'
p425
I2
sS'anyone'
p426
I5
sS'outing'
p427
I2
sS'flimsy'
p428
I2
sS'wonderful'
p429
I4
sS'too'
p430
I12
sS'hollywood'
p431
I4
sS'weave'
p432
I2
sS'final'
p433
I4
sS'painful'
p434
I3
sS'urban'
p435
I2
sS'rewards'
p436
I2
sS'trapped'
p437
I2
sS'uncommonly'
p438
I2
sS'audiences'
p439
I5
sS'exactly'
p440
I3
sS'rejected'
p441
I3
sS'biggest'
p442
I3
sS'dentist'
p443
I3
sS'sequels'
p444
I2
sS'predictable'
p445
I5
sS'somewhat'
p446
I2
sS'unfunny'
p447
I6
sS'wasted'
p448
I3
sS'attempt'
p449
I2
sS'believe'
p450
I3
sS'crawl'
p451
I2
sS'white'
p452
I3
sS'updating'
p453
I2
sS'begins'
p454
I2
sS'past'
p455
I2
sS'kind'
p456
I5
sS'grew'
p457
I2
sS'namesake'
p458
I2
sS'gently'
p459
I2
sS'rival'
p460
I2
sS'scenes'
p461
I6
sS'project'
p462
I2
sS'sabotaged'
p463
I2
sS'appealing'
p464
I3
sS'shyamalan'
p465
I2
sS'silly'
p466
I3
sS'uncanny'
p467
I3
sS'were'
p468
I3
sS'feeling'
p469
I2
sS'solely'
p470
I2
sS'damned'
p471
I2
sS'imaginative'
p472
I4
sS'counter'
p473
I2
sS'false'
p474
I3
sS'outstanding'
p475
I2
sS'turned'
p476
I3
sS'spectrum'
p477
I2
sS'slap'
p478
I2
sS'sad'
p479
I2
sS'himself'
p480
I3
sS'suspense'
p481
I3
sS'close'
p482
I3
sS'bigelow'
p483
I2
sS'seen'
p484
I3
sS'seem'
p485
I2
sS'edgy'
p486
I3
sS'saw'
p487
I3
sS'clearly'
p488
I2
sS'afraid'
p489
I2
sS'genuine'
p490
I3
sS'something'
p491
I8
sS'achievement'
p492
I3
sS'thoroughly'
p493
I6
sS'latter'
p494
I3
sS'ideas'
p495
I2
sS'camouflage'
p496
I2
sS'terrific'
p497
I3
sS'recommended'
p498
I3
sS'animation'
p499
I3
sS'amusing'
p500
I2
sS'laughed'
p501
I2
sS'finding'
p502
I2
sS'performance'
p503
I9
sS'hedonistic'
p504
I2
sS'incoherence'
p505
I3
sS'begin'
p506
I3
sS'sure'
p507
I4
sS'bruce'
p508
I2
sS'knew'
p509
I2
sS'cinematic'
p510
I5
sS'falls'
p511
I2
sS'assault'
p512
I2
sS'involving'
p513
I2
sS'charm'
p514
I4
sS'expertly'
p515
I2
sS'nothing'
p516
I7
sS'awe'
p517
I3
sS'fisted'
p518
I2
sS'why'
p519
I5
sS'thriller'
p520
I11
sS'machismo'
p521
I2
sS'refreshing'
p522
I3
sS'surprising'
p523
I6
sS'sweeping'
p524
I2
sS'performances'
p525
I18
sS'prevails'
p526
I2
sS'proud'
p527
I2
sS'incredibly'
p528
I4
sS'gracefully'
p529
I2
sS'face'
p530
I2
sS'astonishing'
p531
I3
sS'definitely'
p532
I2
sS'propels'
p533
I2
sS'absurd'
p534
I2
sS'deeply'
p535
I5
sS'entertaining'
p536
I8
sS'blend'
p537
I2
sS'fact'
p538
I2
sS'walking'
p539
I2
sS'prim'
p540
I2
sS'summer'
p541
I7
sS'absorbing'
p542
I2
sS'random'
p543
I2
sS'cheap'
p544
I2
sS'contemporary'
p545
I2
sS'captivating'
p546
I3
sS'ending'
p547
I2
sS'bring'
p548
I3
sS'solutions'
p549
I2
sS'fuzzy'
p550
I2
sS'telling'
p551
I8
sS'fine'
p552
I4
sS'find'
p553
I6
sS'brash'
p554
I2
sS'busy'
p555
I2
sS'painfully'
p556
I2
sS'spite'
p557
I2
sS'earned'
p558
I2
sS'justice'
p559
I2
sS'winner'
p560
I3
sS'waiting'
p561
I5
sS'crime'
p562
I9
sS'moments'
p563
I5
sS'tears'
p564
I2
sS'bliss'
p565
I2
sS'touched'
p566
I2
sS'pretty'
p567
I3
sS'money'
p568
I2
sS'hardened'
p569
I2
sS'watching'
p570
I7
sS'hip'
p571
I4
sS'narrative'
p572
I6
sS'hit'
p573
I2
sS'exceptional'
p574
I4
sS'beat'
p575
I2
sS'familiar'
p576
I2
sS'goosebumps'
p577
I2
sS'between'
p578
I4
sS'watch'
p579
I5
sS'cheaper'
p580
I2
sS'watercolor'
p581
I2
sS'feels'
p582
I6
sS'malaise'
p583
I2
sS'inuit'
p584
I2
sS'nearly'
p585
I3
sS'cushion'
p586
I4
sS'smug'
p587
I2
sS'during'
p588
I2
sS'contriving'
p589
I2
sS'gem'
p590
I2
sS'romantic'
p591
I7
sS'off'
p592
I10
sS'artist'
p593
I3
sS'nicely'
p594
I2
sS'mcculloch'
p595
I2
sS'timeless'
p596
I2
sS'idiotic'
p597
I2
sS'monsters'
p598
I2
sS'greene'
p599
I2
sS'jokes'
p600
I3
sS'bad'
p601
I31
sS'stupid'
p602
I4
sS'exercise'
p603
I5
sS'raunchy'
p604
I2
sS'wannabe'
p605
I3
sS'forster'
p606
I2
sS'where'
p607
I4
sS'vision'
p608
I2
sS'remains'
p609
I3
sS'guessing'
p610
I3
sS'inventive'
p611
I2
sS'captures'
p612
I2
sS'disaster'
p613
I5
sS'fascinating'
p614
I8
sS'seas'
p615
I2
sS'puddle'
p616
I2
sS'potent'
p617
I2
sS'sex'
p618
I4
sS'college'
p619
I3
sS'christian'
p620
I2
sS'luminous'
p621
I2
sS'comfort'
p622
I2
sS'best'
p623
I11
sS'seems'
p624
I2
sS'squandering'
p625
I2
sS'spirited'
p626
I3
sS'fails'
p627
I2
sS'satisfying'
p628
I8
sS'revolution'
p629
I2
sS'pedigree'
p630
I2
sS'gags'
p631
I2
sS'unsettling'
p632
I3
sS'pictures'
p633
I2
sS'away'
p634
I2
sS'pootie'
p635
I3
sS'superb'
p636
I3
sS'enough'
p637
I10
sS'mel'
p638
I2
sS'stories'
p639
I5
sS'neither'
p640
I3
sS'dummies'
p641
I2
sS'across'
p642
I5
sS'lazy'
p643
I3
sS'never'
p644
I15
sS'ability'
p645
I3
sS'missing'
p646
I3
sS'screen'
p647
I5
sS'attention'
p648
I3
sS'deliver'
p649
I2
sS'inextricably'
p650
I2
sS'embarrassment'
p651
I2
sS'job'
p652
I4
sS'harvard'
p653
I3
sS'portrays'
p654
I2
sS'premise'
p655
I3
sS'demonstrate'
p656
I2
sS'useless'
p657
I2
sS'let'
p658
I3
sS'lyrical'
p659
I2
sS'both'
p660
I3
sS'commands'
p661
I2
sS'rhythms'
p662
I3
sS'secrets'
p663
I2
sS'many'
p664
I5
sS'barely'
p665
I7
sS'minds'
p666
I4
sS'foreign'
p667
I4
sS'sensitive'
p668
I2
sS'else'
p669
I2
sS'times'
p670
I4
sS'disappointment'
p671
I2
sS'logic'
p672
I2
sS'witch'
p673
I2
sS'wretchedly'
p674
I2
sS'whole'
p675
I2
sS'finds'
p676
I2
sS'otherwise'
p677
I3
sS'load'
p678
I3
sS'point'
p679
I8
sS'simple'
p680
I2
sS'character'
p681
I3
sS'acted'
p682
I6
sS'period'
p683
I2
sS'demons'
p684
I2
sS'dimensional'
p685
I3
sS'atrociously'
p686
I2
sS'laugh'
p687
I2
sS'majestic'
p688
I3
sS'sees'
p689
I3
sS'frenetic'
p690
I2
sS'throughout'
p691
I3
sS'shudder'
p692
I2
sS'riled'
p693
I2
sS'mention'
p694
I2
sS'celluloid'
p695
I3
sS'political'
p696
I4
sS'three'
p697
I9
sS'been'
p698
I9
sS'whom'
p699
I2
sS'charisma'
p700
I3
sS'much'
p701
I12
sS'stanzas'
p702
I2
sS'interest'
p703
I4
sS'expected'
p704
I2
sS'lovely'
p705
I2
sS'incompetent'
p706
I2
sS'attractive'
p707
I2
sS'wants'
p708
I3
sS'life'
p709
I12
sS'mind'
p710
I5
sS'filmmaker'
p711
I3
sS'offers'
p712
I6
sS'kids'
p713
I2
sS'lives'
p714
I2
sS'reno'
p715
I2
sS'unamusing'
p716
I3
sS'creeps'
p717
I2
sS'glides'
p718
I2
sS'spirit'
p719
I2
sS'those'
p720
I7
sS'multi'
p721
I2
sS'terrible'
p722
I4
sS'crumb'
p723
I2
sS'vapid'
p724
I3
sS'tang'
p725
I3
sS'decades'
p726
I2
sS'specifically'
p727
I2
sS'admire'
p728
I2
sS'ugly'
p729
I3
sS'while'
p730
I3
sS'applies'
p731
I2
sS'fun'
p732
I9
sS'guide'
p733
I3
sS'chilling'
p734
I2
sS'pack'
p735
I2
sS'crafted'
p736
I6
sS'costly'
p737
I2
sS'talent'
p738
I2
sS'almost'
p739
I6
sS'sincere'
p740
I2
sS'insanely'
p741
I3
sS'surprisingly'
p742
I6
sS'rip'
p743
I3
sS'commander'
p744
I2
sS'need'
p745
I2
sS'someone'
p746
I3
sS'embrace'
p747
I2
sS'creepy'
p748
I5
sS'exterior'
p749
I2
sS'beautifully'
p750
I5
sS'pathology'
p751
I2
sS'engages'
p752
I2
sS'augustinian'
p753
I2
sS'worry'
p754
I2
sS'chase'
p755
I2
sS'funny'
p756
I19
sS'par'
p757
I2
sS'inc'
p758
I2
sS'breathtakingly'
p759
I2
sS'imax'
p760
I2
sS'charles'
p761
I2
sS'things'
p762
I4
sS'make'
p763
I13
sS'poetry'
p764
I3
sS'cooly'
p765
I2
sS'same'
p766
I4
sS'strange'
p767
I2
sS'grand'
p768
I3
sS'several'
p769
I2
sS'privileged'
p770
I2
sS'conflict'
p771
I2
sS'visually'
p772
I3
sS'persona'
p773
I2
sS'gibson'
p774
I2
sS'deft'
p775
I3
sS'snappy'
p776
I2
sS'sequel'
p777
I5
sS'blair'
p778
I2
sS'chaiken'
p779
I2
sS'rain'
p780
I2
sS'director'
p781
I12
sS'devoid'
p782
I3
sS'moving'
p783
I9
sS'preachy'
p784
I2
sS'characters'
p785
I10
sS'fierce'
p786
I2
sS'frequently'
p787
I2
sS'impeccable'
p788
I2
sS'embarrassingly'
p789
I2
sS'written'
p790
I5
sS'kid'
p791
I2
sS'prescribed'
p792
I3
sS'theater'
p793
I2
sS'lunch'
p794
I3
sS'itself'
p795
I5
sS'spent'
p796
I2
sS'theology'
p797
I2
sS'thought'
p798
I3
sS'skillful'
p799
I2
sS'without'
p800
I14
sS'boring'
p801
I7
sS'greatest'
p802
I2
sS'easily'
p803
I3
sS'very'
p804
I15
sS'hearts'
p805
I4
sS'self'
p806
I5
sS'left'
p807
I5
sS'gorgeously'
p808
I2
sS'endless'
p809
I2
sS'endeavour'
p810
I2
sS'discord'
p811
I2
sS'being'
p812
I11
sS'gods'
p813
I2
sS'ludicrous'
p814
I2
sS'young'
p815
I3
sS'detail'
p816
I4
sS'profoundly'
p817
I3
sS'recycled'
p818
I2
sS'multiplex'
p819
I2
sS'human'
p820
I3
sS'stunt'
p821
I2
sS'touch'
p822
I2
sS'puzzling'
p823
I4
sS'punchlines'
p824
I3
sS'yet'
p825
I3
sS'superficial'
p826
I3
sS'cut'
p827
I2
sS'clueless'
p828
I2
sS'ham'
p829
I2
sS'shrewd'
p830
I2
sS'had'
p831
I9
sS'likeable'
p832
I2
sS'adventurous'
p833
I2
sS'add'
p834
I4
sS'recreates'
p835
I2
sS'watchable'
p836
I2
sS'treatment'
p837
I2
sS'sweet'
p838
I5
sS'pitiful'
p839
I2
sS'has'
p840
I25
sS'humanity'
p841
I2
sS'surprised'
p842
I2
sS'take'
p843
I4
sS'real'
p844
I7
sS'unrecoverable'
p845
I3
sS'movie'
p846
I73
sS'aspects'
p847
I2
sS'around'
p848
I13
sS'spectacular'
p849
I2
sS'ops'
p850
I2
sS'read'
p851
I3
sS'big'
p852
I2
sS'possible'
p853
I2
sS'auspicious'
p854
I2
sS'cultural'
p855
I4
sS'formulaic'
p856
I2
sS'know'
p857
I3
sS'background'
p858
I2
sS'world'
p859
I5
sS'grim'
p860
I2
sS'dreams'
p861
I2
sS'apart'
p862
I2
sS'stuff'
p863
I3
sS'necessary'
p864
I2
sS'like'
p865
I30
sS'obvious'
p866
I5
sS'lacking'
p867
I2
sS'subzero'
p868
I2
sS'audience'
p869
I8
sS'provoking'
p870
I2
sS'nose'
p871
I2
sS'night'
p872
I2
sS'chick'
p873
I2
sS'punny'
p874
I2
sS'trying'
p875
I2
sS'unabashedly'
p876
I2
sS'right'
p877
I6
sS'old'
p878
I7
sS'often'
p879
I5
sS'obsessions'
p880
I2
sS'people'
p881
I10
sS'absolutely'
p882
I3
sS'footage'
p883
I2
sS'creation'
p884
I2
sS'play'
p885
I2
sS'meara'
p886
I2
sS'images'
p887
I2
sS'bore'
p888
I2
sS'oddly'
p889
I2
sS'intellect'
p890
I2
sS'slice'
p891
I2
sS'humor'
p892
I7
sS'richer'
p893
I2
sS'riveting'
p894
I3
sS'phenomenal'
p895
I2
sS'delightful'
p896
I2
sS'witty'
p897
I4
sS'everything'
p898
I2
sS'rewarding'
p899
I2
sS'behave'
p900
I2
sS'ethos'
p901
I2
sS'epic'
p902
I3
sS'resolutely'
p903
I3
sS'core'
p904
I4
sS'finale'
p905
I2
sS'run'
p906
I2
sS'plot'
p907
I10
sS'seconds'
p908
I3
sS'rock'
p909
I4
sS'lilo'
p910
I2
sS'credits'
p911
I5
sS'step'
p912
I3
sS'paid'
p913
I2
sS'innocence'
p914
I2
sS'losing'
p915
I5
sS'memorable'
p916
I6
sS'willies'
p917
I4
sS'intense'
p918
I3
sS'takes'
p919
I3
sS'stone'
p920
I2
sS'goods'
p921
I3
sS'campfire'
p922
I4
sS'anything'
p923
I6
sS'getting'
p924
I2
sS'drama'
p925
I10
sS'convenient'
p926
I2
sS'stand'
p927
I4
sS'act'
p928
I3
sS'documentary'
p929
I9
sS'book'
p930
I3
sS'clams'
p931
I3
sS'seeing'
p932
I6
sS'own'
p933
I6
sS'garbage'
p934
I2
sS'creativity'
p935
I2
sS'vulgarity'
p936
I2
sS'within'
p937
I2
sS'litmus'
p938
I2
sS'down'
p939
I10
sS'pitfalls'
p940
I3
sS'finely'
p941
I2
sS'lively'
p942
I2
sS'female'
p943
I6
sS'cultivated'
p944
I2
sS'shoots'
p945
I2
sS'sports'
p946
I2
sS'pointless'
p947
I3
sS'existed'
p948
I2
sS'art'
p949
I3
sS'deception'
p950
I2
sS'beneath'
p951
I3
sS'horrible'
p952
I4
sS'rushed'
p953
I2
sS'amazingly'
p954
I2
sS'long'
p955
I9
sS'sides'
p956
I2
sS'indoor'
p957
I2
sS'stuck'
p958
I2
sS'low'
p959
I3
sS'lot'
p960
I3
sS'damage'
p961
I2
sS'wonderfully'
p962
I3
sS'bored'
p963
I4
sS'happy'
p964
I2
sS'hookers'
p965
I2
sS'head'
p966
I5
sS'hard'
p967
I5
sS'complete'
p968
I4
sS'fundamentals'
p969
I2
sS'directing'
p970
I3
sS'editing'
p971
I4
sS'gorgeous'
p972
I2
sS'idea'
p973
I8
sS'scouse'
p974
I2
sS'failure'
p975
I4
sS'talents'
p976
I3
sS'manipulative'
p977
I2
sS'game'
p978
I3
sS'hopes'
p979
I2
sS'coldest'
p980
I2
sS'line'
p981
I2
sS'surrender'
p982
I3
sS'dull'
p983
I2
sS'territory'
p984
I3
sS'builds'
p985
I3
sS'society'
p986
I2
sS'heartwarming'
p987
I2
sS'inane'
p988
I2
sS'until'
p989
I2
sS'exploration'
p990
I3
sS'charmer'
p991
I2
sS'emotional'
p992
I9
sS'problem'
p993
I2
sS'piece'
p994
I4
sS'similar'
p995
I2
sS'clear'
p996
I2
sS'penetrating'
p997
I2
sS'sometimes'
p998
I4
sS'constant'
p999
I2
sS'adults'
p1000
I2
sS'cinema'
p1001
I2
sS'taste'
p1002
I2
sS'holes'
p1003
I2
sS'accents'
p1004
I3
sS'dialogue'
p1005
I7
sS'covers'
p1006
I2
sS'emotionally'
p1007
I2
sS'imagination'
p1008
I5
sS'single'
p1009
I2
sS'proves'
p1010
I5
sS'walked'
p1011
I3
sS'believable'
p1012
I2
sS'evocative'
p1013
I2
sS'tremble'
p1014
I2
sS'liking'
p1015
I2
sS'film'
p1016
I58
sS'constructed'
p1017
I3
sS'tedious'
p1018
I3
sS'again'
p1019
I4
sS'spell'
p1020
I2
sS'faithful'
p1021
I2
sS'eerie'
p1022
I3
sS'meaningless'
p1023
I3
sS'pat'
p1024
I2
sS'offensive'
p1025
I2
sS'depth'
p1026
I2
sS'handed'
p1027
I2
sS'ourselves'
p1028
I2
sS'cinematography'
p1029
I2
sS'comedic'
p1030
I4
sS'actors'
p1031
I6
sS'becomes'
p1032
I2
sS'test'
p1033
I4
sS'really'
p1034
I7
sS'roll'
p1035
I3
sS'reckless'
p1036
I2
sS'poor'
p1037
I2
sS'picture'
p1038
I7
sS'draw'
p1039
I2
sS'energetic'
p1040
I2
sS'separate'
p1041
I2
sS'class'
p1042
I3
sS'welcome'
p1043
I2
sS'problems'
p1044
I3
sS'important'
p1045
I2
sS'utterly'
p1046
I2
sS'scores'
p1047
I3
sS'dullest'
p1048
I2
sS'mamet'
p1049
I2
sS'timing'
p1050
I2
sS'aragorn'
p1051
I2
sS'desert'
p1052
I2
sS'psychology'
p1053
I2
sS'ago'
p1054
I4
sS'lane'
p1055
I2
sS'suffers'
p1056
I2
sS'minutes'
p1057
I16
sS'examination'
p1058
I2
sS'ranks'
p1059
I2
sS'values'
p1060
I3
sS'age'
p1061
I3
sS'entertainment'
p1062
I4
sS'pseudo'
p1063
I2
sS'together'
p1064
I6
sS'having'
p1065
I2
sS'cohesion'
p1066
I2
sS'directors'
p1067
I2
sS'warm'
p1068
I4
sS'hugely'
p1069
I4
sS'time'
p1070
I13
sS'serious'
p1071
I5
sS'backward'
p1072
I2
sS'baked'
p1073
I2
sS'original'
p1074
I9
sS'paced'
p1075
I3
sS'once'
p1076
I3
s.