(dp0
S'concept'
p1
I3
sS'forget'
p2
I2
sS'remarkable'
p3
I3
sS'skip'
p4
I2
sS'lack'
p5
I2
sS'atmosphere'
p6
I3
sS'suspenseful'
p7
I4
sS'four'
p8
I5
sS'manages'
p9
I3
sS'battle'
p10
I3
sS'follow'
p11
I2
sS'remarkably'
p12
I4
sS'poorly'
p13
I6
sS'certainly'
p14
I3
sS'fellowship'
p15
I2
sS'concerned'
p16
I2
sS'acting'
p17
I10
sS'created'
p18
I2
sS'originality'
p19
I2
sS'finally'
p20
I2
sS'does'
p21
I16
sS'pace'
p22
I3
sS'ridiculousness'
p23
I2
sS'worth'
p24
I6
sS'pay'
p25
I2
sS'lrb'
p26
I11
sS'worse'
p27
I6
sS'made'
p28
I13
sS'sitting'
p29
I5
sS'far'
p30
I5
sS'sloppy'
p31
I2
sS'slickest'
p32
I2
sS'every'
p33
I5
sS'frailty'
p34
I4
sS'slapdash'
p35
I3
sS'minute'
p36
I6
sS'margarita'
p37
I2
sS'capture'
p38
I3
sS'enjoyable'
p39
I2
sS'school'
p40
I2
sS'magic'
p41
I2
sS'impressive'
p42
I3
sS'stiff'
p43
I2
sS'shock'
p44
I2
sS'solid'
p45
I3
sS'sand'
p46
I2
sS'engrossing'
p47
I3
sS'science'
p48
I2
sS'small'
p49
I2
sS'delightfully'
p50
I2
sS'guy'
p51
I2
sS'triumph'
p52
I2
sS'enjoy'
p53
I2
sS'upper'
p54
I2
sS'spiritual'
p55
I2
sS'melodrama'
p56
I2
sS'gripping'
p57
I2
sS'tired'
p58
I2
sS'visuals'
p59
I3
sS'rrb'
p60
I11
sS'whimsical'
p61
I2
sS'arwen'
p62
I2
sS'erotic'
p63
I2
sS'video'
p64
I3
sS'meditation'
p65
I2
sS'addition'
p66
I2
sS'cast'
p67
I7
sS'sun'
p68
I3
sS'idealistic'
p69
I2
sS'emotions'
p70
I2
sS'stoop'
p71
I3
sS'consistently'
p72
I3
sS'rotten'
p73
I2
sS'version'
p74
I3
sS'goes'
p75
I4
sS'new'
p76
I7
sS'ever'
p77
I7
sS'disney'
p78
I3
sS'edited'
p79
I2
sS'full'
p80
I7
sS'simultaneously'
p81
I4
sS'mel'
p82
I2
sS'never'
p83
I11
sS'inspiring'
p84
I3
sS'here'
p85
I5
sS'delivering'
p86
I2
sS'hours'
p87
I3
sS'entertain'
p88
I2
sS'studio'
p89
I2
sS'unrewarding'
p90
I3
sS'alone'
p91
I2
sS'suckers'
p92
I2
sS'along'
p93
I2
sS'strong'
p94
I3
sS'fifteen'
p95
I2
sS'irritating'
p96
I2
sS'change'
p97
I3
sS'extreme'
p98
I3
sS'dry'
p99
I2
sS'buck'
p100
I2
sS'great'
p101
I14
sS'kids'
p102
I2
sS'standout'
p103
I2
sS'uplifting'
p104
I2
sS'hideously'
p105
I2
sS'brilliant'
p106
I6
sS'involved'
p107
I3
sS'earned'
p108
I2
sS'piercing'
p109
I2
sS'experience'
p110
I10
sS'bittersweet'
p111
I3
sS'dashing'
p112
I2
sS'action'
p113
I10
sS'makes'
p114
I4
sS'nowhere'
p115
I2
sS'gorgeously'
p116
I2
sS'control'
p117
I2
sS'breathtaking'
p118
I2
sS'love'
p119
I4
sS'family'
p120
I8
sS'spy'
p121
I5
sS'worthy'
p122
I4
sS'highly'
p123
I5
sS'psychological'
p124
I2
sS'patience'
p125
I2
sS'wit'
p126
I4
sS'resolutions'
p127
I2
sS'should'
p128
I4
sS'witnessed'
p129
I2
sS'environment'
p130
I2
sS'crap'
p131
I4
sS'vivid'
p132
I2
sS'sake'
p133
I2
sS'ambiguous'
p134
I2
sS'france'
p135
I2
sS'few'
p136
I3
sS'call'
p137
I2
sS'memory'
p138
I2
sS'films'
p139
I7
sS'length'
p140
I2
sS'themselves'
p141
I2
sS'harrowing'
p142
I2
sS'tell'
p143
I2
sS'more'
p144
I24
sS'flat'
p145
I4
sS'clever'
p146
I4
sS'knows'
p147
I2
sS'wretchedly'
p148
I2
sS'clients'
p149
I2
sS'charming'
p150
I4
sS'excuse'
p151
I2
sS'visual'
p152
I4
sS'warm'
p153
I4
sS'surface'
p154
I2
sS'loose'
p155
I2
sS'entwined'
p156
I2
sS'iii'
p157
I2
sS'must'
p158
I2
sS'none'
p159
I3
sS'hour'
p160
I7
sS'car'
p161
I2
sS'ride'
p162
I2
sS'blade'
p163
I2
sS'soul'
p164
I2
sS'movies'
p165
I9
sS'itself'
p166
I4
sS'indescribably'
p167
I3
sS'thin'
p168
I3
sS'evolved'
p169
I2
sS'male'
p170
I2
sS'laughter'
p171
I3
sS'cussing'
p172
I2
sS'slightest'
p173
I2
sS'history'
p174
I5
sS'beautiful'
p175
I4
sS'heart'
p176
I3
sS'ingenuity'
p177
I2
sS'indie'
p178
I2
sS'laughs'
p179
I4
sS'career'
p180
I2
sS'sitcom'
p181
I3
sS'imitation'
p182
I2
sS'documenting'
p183
I2
sS'sense'
p184
I4
sS'lacks'
p185
I2
sS'viewers'
p186
I3
sS'mainstream'
p187
I2
sS'creates'
p188
I2
sS'needs'
p189
I2
sS'redundancy'
p190
I2
sS'end'
p191
I7
sS'recovery'
p192
I2
sS'delivers'
p193
I4
sS'deserves'
p194
I2
sS'rather'
p195
I5
sS'acts'
p196
I2
sS'mike'
p197
I2
sS'feature'
p198
I6
sS'compassion'
p199
I2
sS'fourth'
p200
I2
sS'instead'
p201
I3
sS'comedy'
p202
I21
sS'intelligent'
p203
I5
sS'visceral'
p204
I2
sS'tension'
p205
I2
sS'levy'
p206
I2
sS'explores'
p207
I2
sS'intended'
p208
I2
sS'huge'
p209
I2
sS'may'
p210
I2
sS'sacrifice'
p211
I2
sS'exoticism'
p212
I2
sS'designed'
p213
I2
sS'coming'
p214
I4
sS'date'
p215
I3
sS'such'
p216
I5
sS'dumbo'
p217
I2
sS'destructive'
p218
I2
sS'man'
p219
I3
sS'contrived'
p220
I4
sS'short'
p221
I2
sS'effective'
p222
I2
sS'nonexistent'
p223
I2
sS'sit'
p224
I5
sS'tale'
p225
I6
sS'funniest'
p226
I2
sS'improvised'
p227
I2
sS'keeps'
p228
I2
sS'worst'
p229
I4
sS'order'
p230
I2
sS'executed'
p231
I3
sS'unfolds'
p232
I2
sS'developed'
p233
I2
sS'insight'
p234
I2
sS'midnight'
p235
I4
sS'satisfied'
p236
I2
sS'years'
p237
I8
sS'playful'
p238
I4
sS'awful'
p239
I2
sS'paper'
p240
I2
sS'through'
p241
I11
sS'pitch'
p242
I2
sS'budding'
p243
I2
sS'still'
p244
I5
sS'before'
p245
I4
sS'perfect'
p246
I4
sS'style'
p247
I3
sS'conned'
p248
I2
sS'broiling'
p249
I3
sS'garbage'
p250
I2
sS'fit'
p251
I2
sS'interesting'
p252
I8
sS'trying'
p253
I2
sS'jim'
p254
I2
sS'better'
p255
I3
sS'production'
p256
I3
sS'compelling'
p257
I3
sS'astonish'
p258
I2
sS'drumline'
p259
I2
sS'cool'
p260
I3
sS'decades'
p261
I2
sS'overcome'
p262
I2
sS'pleasurable'
p263
I2
sS'evening'
p264
I2
sS'impulses'
p265
I2
sS'conversations'
p266
I2
sS'material'
p267
I4
sS'lunch'
p268
I3
sS'course'
p269
I2
sS'litmus'
p270
I2
sS'base'
p271
I2
sS'half'
p272
I6
sS'not'
p273
I19
sS'downright'
p274
I3
sS'silver'
p275
I2
sS'nor'
p276
I2
sS'represents'
p277
I2
sS'gets'
p278
I5
sS'earthly'
p279
I2
sS'opera'
p280
I3
sS'always'
p281
I5
sS'amateurish'
p282
I3
sS'debut'
p283
I6
sS'good'
p284
I21
sS'grandeur'
p285
I3
sS'truth'
p286
I2
sS'each'
p287
I8
sS'entirely'
p288
I6
sS'profile'
p289
I2
sS'studios'
p290
I2
sS'everyone'
p291
I2
sS'christian'
p292
I2
sS'another'
p293
I3
sS'doing'
p294
I2
sS'series'
p295
I2
sS'energy'
p296
I5
sS'stooping'
p297
I2
sS'diane'
p298
I2
sS'idea'
p299
I7
sS'engaging'
p300
I5
sS'bland'
p301
I2
sS'thirteen'
p302
I2
sS'stealing'
p303
I2
sS'girl'
p304
I6
sS'beyond'
p305
I2
sS'message'
p306
I2
sS'really'
p307
I7
sS'jackson'
p308
I2
sS'stitch'
p309
I2
sS'actor'
p310
I4
sS'since'
p311
I4
sS'looking'
p312
I2
sS'mess'
p313
I2
sS'numbingly'
p314
I3
sS'humanistic'
p315
I2
sS'hilarious'
p316
I10
sS'suggesting'
p317
I2
sS'got'
p318
I2
sS'tiresome'
p319
I2
sS'monster'
p320
I3
sS'written'
p321
I5
sS'frank'
p322
I2
sS'story'
p323
I17
sS'extraordinary'
p324
I3
sS'reason'
p325
I2
sS'masterpiece'
p326
I3
sS'surely'
p327
I2
sS'imagine'
p328
I4
sS'put'
p329
I4
sS'wanted'
p330
I2
sS'care'
p331
I7
sS'shocking'
p332
I2
sS'subzero'
p333
I2
sS'starts'
p334
I2
sS'days'
p335
I3
sS'keep'
p336
I2
sS'motion'
p337
I3
sS'thing'
p338
I5
sS'american'
p339
I2
sS'chills'
p340
I5
sS'loud'
p341
I2
sS'solidly'
p342
I2
sS'vulgar'
p343
I3
sS'features'
p344
I2
sS'feel'
p345
I14
sS'powerful'
p346
I5
sS'scene'
p347
I2
sS'fits'
p348
I2
sS'wallflower'
p349
I2
sS'done'
p350
I3
sS'fast'
p351
I2
sS'delicious'
p352
I2
sS'gasp'
p353
I2
sS'carry'
p354
I2
sS'impossible'
p355
I3
sS'comic'
p356
I3
sS'quality'
p357
I2
sS'concert'
p358
I2
sS'little'
p359
I11
sS'cynical'
p360
I2
sS'script'
p361
I6
sS'murky'
p362
I2
sS'interviews'
p363
I2
sS'structured'
p364
I2
sS'twisted'
p365
I3
sS'fiction'
p366
I2
sS'anyone'
p367
I4
sS'outing'
p368
I2
sS'flimsy'
p369
I2
sS'wonderful'
p370
I3
sS'too'
p371
I11
sS'white'
p372
I3
sS'final'
p373
I3
sS'painful'
p374
I3
sS'rewards'
p375
I2
sS'trapped'
p376
I2
sS'uncommonly'
p377
I2
sS'exactly'
p378
I3
sS'rejected'
p379
I3
sS'depressing'
p380
I2
sS'biggest'
p381
I3
sS'sequels'
p382
I2
sS'predictable'
p383
I3
sS'somewhat'
p384
I2
sS'unfunny'
p385
I5
sS'wasted'
p386
I3
sS'fuzzy'
p387
I2
sS'believe'
p388
I3
sS'crawl'
p389
I2
sS'hollywood'
p390
I4
sS'updating'
p391
I2
sS'past'
p392
I2
sS'kind'
p393
I5
sS'grew'
p394
I2
sS'namesake'
p395
I2
sS'gently'
p396
I2
sS'boring'
p397
I7
sS'scenes'
p398
I5
sS'project'
p399
I2
sS'sabotaged'
p400
I2
sS'shyamalan'
p401
I2
sS'silly'
p402
I2
sS'uncanny'
p403
I2
sS'were'
p404
I3
sS'dumb'
p405
I3
sS'feeling'
p406
I2
sS'solely'
p407
I2
sS'distinguished'
p408
I3
sS'screenplay'
p409
I2
sS'imaginative'
p410
I2
sS'false'
p411
I3
sS'turned'
p412
I3
sS'shrewd'
p413
I2
sS'slap'
p414
I2
sS'himself'
p415
I3
sS'suspense'
p416
I3
sS'portrait'
p417
I6
sS'need'
p418
I2
sS'seen'
p419
I3
sS'seem'
p420
I2
sS'saw'
p421
I3
sS'clearly'
p422
I2
sS'something'
p423
I8
sS'achievement'
p424
I3
sS'thoroughly'
p425
I6
sS'latter'
p426
I3
sS'ideas'
p427
I2
sS'camouflage'
p428
I2
sS'terrific'
p429
I3
sS'animation'
p430
I3
sS'amusing'
p431
I2
sS'laughed'
p432
I2
sS'performance'
p433
I8
sS'begin'
p434
I3
sS'sure'
p435
I3
sS'cinematic'
p436
I5
sS'falls'
p437
I2
sS'assault'
p438
I2
sS'involving'
p439
I2
sS'charm'
p440
I4
sS'expertly'
p441
I2
sS'nothing'
p442
I8
sS'awe'
p443
I3
sS'fisted'
p444
I2
sS'extremely'
p445
I2
sS'why'
p446
I6
sS'thriller'
p447
I10
sS'refreshing'
p448
I3
sS'surprising'
p449
I5
sS'sweeping'
p450
I2
sS'performances'
p451
I16
sS'prevails'
p452
I2
sS'proud'
p453
I2
sS'gracefully'
p454
I2
sS'face'
p455
I2
sS'astonishing'
p456
I3
sS'definitely'
p457
I3
sS'undeniably'
p458
I2
sS'deeply'
p459
I4
sS'entertaining'
p460
I7
sS'inane'
p461
I2
sS'fact'
p462
I2
sS'walking'
p463
I2
sS'shot'
p464
I2
sS'absorbing'
p465
I3
sS'random'
p466
I2
sS'cheap'
p467
I2
sS'gibson'
p468
I2
sS'captivating'
p469
I3
sS'ending'
p470
I2
sS'bring'
p471
I2
sS'solutions'
p472
I2
sS'telling'
p473
I8
sS'stores'
p474
I2
sS'fine'
p475
I4
sS'find'
p476
I5
sS'giant'
p477
I2
sS'busy'
p478
I2
sS'knowledge'
p479
I2
sS'spite'
p480
I2
sS'music'
p481
I6
sS'winner'
p482
I3
sS'waiting'
p483
I3
sS'crime'
p484
I9
sS'moments'
p485
I4
sS'tears'
p486
I2
sS'touched'
p487
I2
sS'pretty'
p488
I2
sS'money'
p489
I4
sS'hardened'
p490
I2
sS'watching'
p491
I5
sS'hip'
p492
I3
sS'narrative'
p493
I4
sS'hit'
p494
I2
sS'exceptional'
p495
I3
sS'beat'
p496
I2
sS'horrible'
p497
I3
sS'watch'
p498
I5
sS'cheaper'
p499
I2
sS'watercolor'
p500
I2
sS'feels'
p501
I5
sS'malaise'
p502
I2
sS'nearly'
p503
I3
sS'cushion'
p504
I2
sS'smug'
p505
I2
sS'during'
p506
I2
sS'contriving'
p507
I2
sS'gem'
p508
I2
sS'romantic'
p509
I5
sS'artist'
p510
I3
sS'nicely'
p511
I2
sS'timeless'
p512
I2
sS'idiotic'
p513
I2
sS'monsters'
p514
I2
sS'greene'
p515
I2
sS'jokes'
p516
I3
sS'bad'
p517
I29
sS'stupid'
p518
I3
sS'exercise'
p519
I6
sS'raunchy'
p520
I2
sS'wannabe'
p521
I3
sS'forster'
p522
I2
sS'where'
p523
I2
sS'remains'
p524
I3
sS'guessing'
p525
I3
sS'inventive'
p526
I2
sS'captures'
p527
I2
sS'disaster'
p528
I4
sS'fascinating'
p529
I9
sS'seas'
p530
I2
sS'puddle'
p531
I2
sS'sex'
p532
I4
sS'college'
p533
I3
sS'close'
p534
I3
sS'luminous'
p535
I2
sS'comfort'
p536
I2
sS'best'
p537
I8
sS'squandering'
p538
I2
sS'spirited'
p539
I2
sS'fails'
p540
I2
sS'satisfying'
p541
I8
sS'revolution'
p542
I2
sS'pedigree'
p543
I2
sS'gags'
p544
I2
sS'unsettling'
p545
I3
sS'pictures'
p546
I2
sS'away'
p547
I3
sS'demons'
p548
I2
sS'superb'
p549
I2
sS'enough'
p550
I10
sS'between'
p551
I3
sS'stories'
p552
I5
sS'neither'
p553
I3
sS'across'
p554
I5
sS'lazy'
p555
I3
sS'men'
p556
I3
sS'ability'
p557
I2
sS'missing'
p558
I3
sS'screen'
p559
I5
sS'attention'
p560
I2
sS'inextricably'
p561
I2
sS'embarrassment'
p562
I2
sS'job'
p563
I4
sS'harvard'
p564
I2
sS'portrays'
p565
I2
sS'premise'
p566
I3
sS'demonstrate'
p567
I2
sS'genre'
p568
I3
sS'let'
p569
I3
sS'lyrical'
p570
I2
sS'both'
p571
I5
sS'commands'
p572
I2
sS'last'
p573
I6
sS'secrets'
p574
I2
sS'many'
p575
I5
sS'barely'
p576
I7
sS'minds'
p577
I3
sS'foreign'
p578
I3
sS'sensitive'
p579
I2
sS'else'
p580
I2
sS'times'
p581
I4
sS'disappointment'
p582
I2
sS'logic'
p583
I2
sS'witch'
p584
I2
sS'whole'
p585
I2
sS'finds'
p586
I2
sS'con'
p587
I2
sS'load'
p588
I3
sS'point'
p589
I4
sS'simple'
p590
I2
sS'character'
p591
I3
sS'acted'
p592
I5
sS'period'
p593
I2
sS'incessant'
p594
I2
sS'dimensional'
p595
I3
sS'atrociously'
p596
I2
sS'laugh'
p597
I3
sS'majestic'
p598
I3
sS'sees'
p599
I3
sS'throughout'
p600
I2
sS'shudder'
p601
I2
sS'riled'
p602
I2
sS'celluloid'
p603
I3
sS'political'
p604
I3
sS'three'
p605
I9
sS'been'
p606
I8
sS'whom'
p607
I2
sS'charisma'
p608
I3
sS'offers'
p609
I6
sS'stanzas'
p610
I2
sS'interest'
p611
I4
sS'expected'
p612
I2
sS'territory'
p613
I3
sS'warmth'
p614
I2
sS'wants'
p615
I3
sS'life'
p616
I10
sS'mind'
p617
I5
sS'filmmaker'
p618
I2
sS'dramatic'
p619
I6
sS'lives'
p620
I2
sS'reno'
p621
I2
sS'unamusing'
p622
I3
sS'creeps'
p623
I2
sS'glides'
p624
I2
sS'spirit'
p625
I3
sS'those'
p626
I7
sS'multi'
p627
I2
sS'terrible'
p628
I4
sS'crumb'
p629
I2
sS'tang'
p630
I2
sS'might'
p631
I8
sS'admire'
p632
I2
sS'ugly'
p633
I3
sS'while'
p634
I2
sS'smart'
p635
I2
sS'applies'
p636
I2
sS'fun'
p637
I9
sS'instantly'
p638
I2
sS'guide'
p639
I2
sS'pack'
p640
I2
sS'crafted'
p641
I6
sS'costly'
p642
I2
sS'talent'
p643
I2
sS'century'
p644
I2
sS'almost'
p645
I6
sS'sincere'
p646
I2
sS'insanely'
p647
I3
sS'surprisingly'
p648
I4
sS'rip'
p649
I3
sS'someone'
p650
I3
sS'audiences'
p651
I3
sS'creepy'
p652
I5
sS'beautifully'
p653
I4
sS'pathology'
p654
I2
sS'engages'
p655
I2
sS'chase'
p656
I2
sS'funny'
p657
I20
sS'par'
p658
I2
sS'pat'
p659
I2
sS'breathtakingly'
p660
I2
sS'charles'
p661
I2
sS'things'
p662
I3
sS'make'
p663
I12
sS'poetry'
p664
I3
sS'cooly'
p665
I2
sS'same'
p666
I4
sS'strange'
p667
I2
sS'grand'
p668
I2
sS'inc'
p669
I2
sS'privileged'
p670
I2
sS'conflict'
p671
I2
sS'visually'
p672
I2
sS'persona'
p673
I2
sS'emotionally'
p674
I2
sS'deft'
p675
I3
sS'sequel'
p676
I6
sS'blair'
p677
I2
sS'chaiken'
p678
I2
sS'rain'
p679
I2
sS'director'
p680
I12
sS'moment'
p681
I2
sS'moving'
p682
I9
sS'preachy'
p683
I2
sS'characters'
p684
I9
sS'fierce'
p685
I2
sS'frequently'
p686
I2
sS'impeccable'
p687
I2
sS'embarrassingly'
p688
I2
sS'weave'
p689
I2
sS'off'
p690
I9
sS'mention'
p691
I2
sS'lacking'
p692
I2
sS'spent'
p693
I2
sS'edgy'
p694
I3
sS'thought'
p695
I3
sS'skillful'
p696
I2
sS'without'
p697
I12
sS'greatest'
p698
I2
sS'easily'
p699
I3
sS'very'
p700
I16
sS'hearts'
p701
I3
sS'self'
p702
I3
sS'left'
p703
I5
sS'summer'
p704
I7
sS'endless'
p705
I2
sS'endeavour'
p706
I2
sS'less'
p707
I7
sS'being'
p708
I10
sS'gods'
p709
I2
sS'ludicrous'
p710
I2
sS'young'
p711
I2
sS'detail'
p712
I3
sS'profoundly'
p713
I3
sS'recycled'
p714
I2
sS'multiplex'
p715
I2
sS'human'
p716
I3
sS'world'
p717
I3
sS'touch'
p718
I2
sS'puzzling'
p719
I4
sS'punchlines'
p720
I2
sS'yet'
p721
I3
sS'superficial'
p722
I3
sS'cut'
p723
I2
sS'clueless'
p724
I2
sS'ham'
p725
I2
sS'had'
p726
I10
sS'likeable'
p727
I2
sS'adventurous'
p728
I2
sS'add'
p729
I3
sS'recreates'
p730
I2
sS'watchable'
p731
I2
sS'treatment'
p732
I2
sS'sweet'
p733
I5
sS'pitiful'
p734
I2
sS'has'
p735
I26
sS'humanity'
p736
I2
sS'surprised'
p737
I2
sS'take'
p738
I3
sS'real'
p739
I6
sS'unrecoverable'
p740
I3
sS'movie'
p741
I69
sS'aspects'
p742
I2
sS'around'
p743
I12
sS'spectacular'
p744
I2
sS'ops'
p745
I2
sS'read'
p746
I3
sS'big'
p747
I4
sS'auspicious'
p748
I2
sS'cultural'
p749
I3
sS'formulaic'
p750
I2
sS'know'
p751
I3
sS'background'
p752
I2
sS'stunt'
p753
I2
sS'grim'
p754
I2
sS'dreams'
p755
I2
sS'apart'
p756
I2
sS'stuff'
p757
I5
sS'like'
p758
I28
sS'obvious'
p759
I5
sS'oddly'
p760
I2
sS'audience'
p761
I7
sS'provoking'
p762
I2
sS'nose'
p763
I2
sS'night'
p764
I2
sS'completely'
p765
I2
sS'works'
p766
I2
sS'right'
p767
I6
sS'old'
p768
I7
sS'often'
p769
I4
sS'people'
p770
I8
sS'absolutely'
p771
I3
sS'footage'
p772
I2
sS'play'
p773
I2
sS'meara'
p774
I2
sS'images'
p775
I2
sS'bore'
p776
I2
sS'loses'
p777
I2
sS'intellect'
p778
I2
sS'humor'
p779
I6
sS'richer'
p780
I2
sS'riveting'
p781
I2
sS'demonstrates'
p782
I3
sS'raffish'
p783
I2
sS'witty'
p784
I3
sS'snappy'
p785
I2
sS'rewarding'
p786
I2
sS'campfire'
p787
I4
sS'epic'
p788
I3
sS'christmas'
p789
I3
sS'resolutely'
p790
I3
sS'core'
p791
I4
sS'noise'
p792
I2
sS'plot'
p793
I10
sS'seconds'
p794
I3
sS'rock'
p795
I5
sS'lilo'
p796
I2
sS'credits'
p797
I5
sS'step'
p798
I3
sS'paid'
p799
I2
sS'innocence'
p800
I2
sS'losing'
p801
I5
sS'memorable'
p802
I7
sS'willies'
p803
I4
sS'intense'
p804
I3
sS'takes'
p805
I3
sS'stone'
p806
I2
sS'goods'
p807
I2
sS'anything'
p808
I6
sS'getting'
p809
I2
sS'drama'
p810
I10
sS'convenient'
p811
I2
sS'stand'
p812
I3
sS'act'
p813
I3
sS'documentary'
p814
I9
sS'book'
p815
I3
sS'clams'
p816
I3
sS'seeing'
p817
I5
sS'own'
p818
I6
sS'fresh'
p819
I2
sS'incoherence'
p820
I2
sS'vulgarity'
p821
I2
sS'within'
p822
I2
sS'plain'
p823
I2
sS'intellectual'
p824
I2
sS'down'
p825
I8
sS'pitfalls'
p826
I2
sS'finely'
p827
I2
sS'machismo'
p828
I2
sS'female'
p829
I4
sS'cultivated'
p830
I2
sS'shoots'
p831
I2
sS'pointless'
p832
I3
sS'infidelity'
p833
I2
sS'art'
p834
I3
sS'beneath'
p835
I2
sS'rushed'
p836
I2
sS'amazingly'
p837
I2
sS'long'
p838
I9
sS'class'
p839
I2
sS'indoor'
p840
I2
sS'much'
p841
I13
sS'low'
p842
I5
sS'lot'
p843
I3
sS'damage'
p844
I2
sS'wonderfully'
p845
I3
sS'bored'
p846
I3
sS'pootie'
p847
I2
sS'happy'
p848
I2
sS'hookers'
p849
I2
sS'head'
p850
I5
sS'hard'
p851
I5
sS'complete'
p852
I2
sS'fundamentals'
p853
I2
sS'directing'
p854
I2
sS'editing'
p855
I4
sS'gorgeous'
p856
I2
sS'scouse'
p857
I2
sS'failure'
p858
I3
sS'talents'
p859
I2
sS'manipulative'
p860
I2
sS'game'
p861
I3
sS'hopes'
p862
I2
sS'coldest'
p863
I2
sS'line'
p864
I2
sS'surrender'
p865
I3
sS'dull'
p866
I3
sS'waste'
p867
I2
sS'builds'
p868
I3
sS'society'
p869
I2
sS'heartwarming'
p870
I3
sS'until'
p871
I2
sS'exploration'
p872
I2
sS'emotional'
p873
I9
sS'problem'
p874
I2
sS'piece'
p875
I4
sS'minutes'
p876
I14
sS'clear'
p877
I2
sS'sometimes'
p878
I5
sS'constant'
p879
I2
sS'cinema'
p880
I2
sS'holes'
p881
I2
sS'accents'
p882
I3
sS'filmmaking'
p883
I2
sS'dialogue'
p884
I7
sS'covers'
p885
I2
sS'fellow'
p886
I2
sS'imagination'
p887
I5
sS'single'
p888
I2
sS'proves'
p889
I5
sS'walked'
p890
I3
sS'believable'
p891
I2
sS'evocative'
p892
I2
sS'tremble'
p893
I2
sS'liking'
p894
I2
sS'film'
p895
I48
sS'constructed'
p896
I3
sS'tedious'
p897
I3
sS'again'
p898
I4
sS'spell'
p899
I2
sS'faithful'
p900
I2
sS'eerie'
p901
I3
sS'offensive'
p902
I2
sS'depth'
p903
I2
sS'handed'
p904
I2
sS'ourselves'
p905
I2
sS'cinematography'
p906
I2
sS'comedic'
p907
I3
sS'actors'
p908
I6
sS'test'
p909
I4
sS'incredibly'
p910
I4
sS'roll'
p911
I3
sS'reckless'
p912
I2
sS'poor'
p913
I2
sS'picture'
p914
I5
sS'star'
p915
I2
sS'finale'
p916
I2
sS'problems'
p917
I3
sS'important'
p918
I2
sS'utterly'
p919
I2
sS'scores'
p920
I3
sS'dullest'
p921
I2
sS'mamet'
p922
I2
sS'timing'
p923
I2
sS'aragorn'
p924
I2
sS'desert'
p925
I2
sS'psychology'
p926
I2
sS'ago'
p927
I3
sS'lane'
p928
I2
sS'suffers'
p929
I2
sS'ranks'
p930
I2
sS'values'
p931
I3
sS'age'
p932
I4
sS'entertainment'
p933
I4
sS'pseudo'
p934
I2
sS'together'
p935
I5
sS'cohesion'
p936
I2
sS'directors'
p937
I2
sS'sobering'
p938
I2
sS'hugely'
p939
I4
sS'time'
p940
I12
sS'serious'
p941
I5
sS'backward'
p942
I2
sS'baked'
p943
I2
sS'original'
p944
I9
sS'paced'
p945
I2
sS'once'
p946
I3
s.