(dp0
S'breadth'
p1
(lp2
F-3.421768401206924
aF-3.1504494094608804
asS'concept'
p3
(lp4
F-2.9446471464872612
aF-3.4514794051248616
asS'forget'
p5
(lp6
F-3.421768401206924
aF-3.1504494094608804
asS'remarkable'
p7
(lp8
F-3.421768401206924
aF-3.1504494094608804
asS'skip'
p9
(lp10
F-3.1207384055429426
aF-3.4514794051248616
asS'lack'
p11
(lp12
F-2.9446471464872612
aF-3.4514794051248616
asS'atmosphere'
p13
(lp14
F-3.421768401206924
aF-3.1504494094608804
asS'suspenseful'
p15
(lp16
F-3.421768401206924
aF-2.974358150405199
asS'four'
p17
(lp18
F-3.1207384055429426
aF-3.1504494094608804
asS'unamusing'
p19
(lp20
F-2.9446471464872612
aF-3.4514794051248616
asS'manages'
p21
(lp22
F-2.9446471464872612
aF-3.4514794051248616
asS'battle'
p23
(lp24
F-3.421768401206924
aF-3.1504494094608804
asS'shot'
p25
(lp26
F-3.421768401206924
aF-3.1504494094608804
asS'remarkably'
p27
(lp28
F-3.421768401206924
aF-2.849419413796899
asS'children'
p29
(lp30
F-3.1207384055429426
aF-3.4514794051248616
asS'poorly'
p31
(lp32
F-2.51867841421498
aF-3.4514794051248616
asS'idealism'
p33
(lp34
F-3.421768401206924
aF-3.1504494094608804
asS'certainly'
p35
(lp36
F-3.421768401206924
aF-2.849419413796899
asS'fellowship'
p37
(lp38
F-3.421768401206924
aF-3.1504494094608804
asS'young'
p39
(lp40
F-3.1207384055429426
aF-3.4514794051248616
asS'created'
p41
(lp42
F-3.421768401206924
aF-3.1504494094608804
asS'originality'
p43
(lp44
F-3.421768401206924
aF-3.1504494094608804
asS'amaze'
p45
(lp46
F-3.421768401206924
aF-3.1504494094608804
asS'does'
p47
(lp48
F-2.3425871551592987
aF-2.6733281547412178
asS'pace'
p49
(lp50
F-3.421768401206924
aF-3.1504494094608804
asS'spythriller'
p51
(lp52
F-3.421768401206924
aF-3.1504494094608804
asS'worth'
p53
(lp54
F-2.8197084098789613
aF-2.974358150405199
asS'lunch'
p55
(lp56
F-2.9446471464872612
aF-3.4514794051248616
asS'lrb'
p57
(lp58
F-2.722798396870905
aF-2.6063813651106047
asS'worse'
p59
(lp60
F-2.8197084098789613
aF-3.4514794051248616
asS'sitting'
p61
(lp62
F-3.421768401206924
aF-2.849419413796899
asS'compassion'
p63
(lp64
F-3.421768401206924
aF-3.1504494094608804
asS'sloppy'
p65
(lp66
F-3.1207384055429426
aF-3.4514794051248616
asS'slickest'
p67
(lp68
F-3.421768401206924
aF-3.1504494094608804
asS'screenwriting'
p69
(lp70
F-3.1207384055429426
aF-3.4514794051248616
asS'every'
p71
(lp72
F-2.8197084098789613
aF-3.4514794051248616
asS'romantic'
p73
(lp74
F-3.421768401206924
aF-2.6733281547412178
asS'frailty'
p75
(lp76
F-3.421768401206924
aF-2.849419413796899
asS'nor'
p77
(lp78
F-3.1207384055429426
aF-3.4514794051248616
asS'slapdash'
p79
(lp80
F-2.9446471464872612
aF-3.4514794051248616
asS'minute'
p81
(lp82
F-2.722798396870905
aF-3.4514794051248616
asS'margarita'
p83
(lp84
F-3.421768401206924
aF-3.1504494094608804
asS'enjoyable'
p85
(lp86
F-3.421768401206924
aF-3.1504494094608804
asS'heaven'
p87
(lp88
F-3.421768401206924
aF-3.1504494094608804
asS'impressive'
p89
(lp90
F-3.421768401206924
aF-2.974358150405199
asS'made'
p91
(lp92
F-2.51867841421498
aF-2.849419413796899
asS'benevolent'
p93
(lp94
F-3.421768401206924
aF-3.1504494094608804
asS'shock'
p95
(lp96
F-3.421768401206924
aF-3.1504494094608804
asS'leave'
p97
(lp98
F-3.421768401206924
aF-3.4514794051248616
asS'solid'
p99
(lp100
F-3.421768401206924
aF-2.974358150405199
asS'sand'
p101
(lp102
F-3.421768401206924
aF-3.1504494094608804
asS'engrossing'
p103
(lp104
F-3.421768401206924
aF-2.974358150405199
asS'science'
p105
(lp106
F-3.1207384055429426
aF-3.4514794051248616
asS'alltime'
p107
(lp108
F-3.421768401206924
aF-3.1504494094608804
asS'triumph'
p109
(lp110
F-3.421768401206924
aF-3.1504494094608804
asS'enjoy'
p111
(lp112
F-3.1207384055429426
aF-3.4514794051248616
asS'upper'
p113
(lp114
F-3.421768401206924
aF-2.974358150405199
asS'spiritual'
p115
(lp116
F-3.421768401206924
aF-3.1504494094608804
asS'wallflower'
p117
(lp118
F-3.421768401206924
aF-3.1504494094608804
asS'gripping'
p119
(lp120
F-3.421768401206924
aF-3.4514794051248616
asS'tired'
p121
(lp122
F-3.1207384055429426
aF-3.4514794051248616
asS'visuals'
p123
(lp124
F-3.421768401206924
aF-2.974358150405199
asS'rrb'
p125
(lp126
F-2.722798396870905
aF-2.6063813651106047
asS'whimsical'
p127
(lp128
F-3.421768401206924
aF-3.1504494094608804
asS'arwen'
p129
(lp130
F-3.421768401206924
aF-3.1504494094608804
asS'elegant'
p131
(lp132
F-3.421768401206924
aF-3.1504494094608804
asS'erotic'
p133
(lp134
F-3.1207384055429426
aF-3.4514794051248616
asS'pretentious'
p135
(lp136
F-3.1207384055429426
aF-3.4514794051248616
asS'meditation'
p137
(lp138
F-3.421768401206924
aF-3.1504494094608804
asS'witnessed'
p139
(lp140
F-3.421768401206924
aF-3.1504494094608804
asS'sun'
p141
(lp142
F-2.9446471464872612
aF-3.4514794051248616
asS'emotions'
p143
(lp144
F-3.421768401206924
aF-3.1504494094608804
asS'consistently'
p145
(lp146
F-3.421768401206924
aF-2.849419413796899
asS'rotten'
p147
(lp148
F-3.1207384055429426
aF-3.4514794051248616
asS'version'
p149
(lp150
F-2.9446471464872612
aF-3.4514794051248616
asS'goes'
p151
(lp152
F-2.8197084098789613
aF-3.4514794051248616
asS'new'
p153
(lp154
F-2.9446471464872612
aF-2.974358150405199
asS'ever'
p155
(lp156
F-2.64361715082328
aF-3.4514794051248616
asS'disney'
p157
(lp158
F-3.421768401206924
aF-2.974358150405199
asS'told'
p159
(lp160
F-3.421768401206924
aF-3.1504494094608804
asS'full'
p161
(lp162
F-2.8197084098789613
aF-2.849419413796899
asS'christian'
p163
(lp164
F-3.421768401206924
aF-3.1504494094608804
asS'mel'
p165
(lp166
F-3.421768401206924
aF-3.1504494094608804
asS'men'
p167
(lp168
F-3.421768401206924
aF-2.849419413796899
asS'portrays'
p169
(lp170
F-3.421768401206924
aF-3.1504494094608804
asS'sequelforthesake'
p171
(lp172
F-3.1207384055429426
aF-3.4514794051248616
asS'hours'
p173
(lp174
F-2.9446471464872612
aF-3.4514794051248616
asS'portrait'
p175
(lp176
F-3.421768401206924
aF-2.752509400788843
asS'entertain'
p177
(lp178
F-3.421768401206924
aF-3.1504494094608804
asS'studio'
p179
(lp180
F-3.1207384055429426
aF-3.4514794051248616
asS'unrewarding'
p181
(lp182
F-2.9446471464872612
aF-3.4514794051248616
asS'alone'
p183
(lp184
F-3.1207384055429426
aF-3.4514794051248616
asS'suckers'
p185
(lp186
F-3.1207384055429426
aF-3.4514794051248616
asS'along'
p187
(lp188
F-3.1207384055429426
aF-3.4514794051248616
asS'strong'
p189
(lp190
F-3.421768401206924
aF-3.1504494094608804
asS'irritating'
p191
(lp192
F-3.1207384055429426
aF-3.4514794051248616
asS'change'
p193
(lp194
F-3.1207384055429426
aF-3.4514794051248616
asS'extreme'
p195
(lp196
F-2.9446471464872612
aF-3.4514794051248616
asS'dry'
p197
(lp198
F-3.421768401206924
aF-3.4514794051248616
asS'waste'
p199
(lp200
F-3.1207384055429426
aF-3.4514794051248616
asS'great'
p201
(lp202
F-3.421768401206924
aF-2.2753881460691803
asS'substance'
p203
(lp204
F-3.1207384055429426
aF-3.4514794051248616
asS'standout'
p205
(lp206
F-3.421768401206924
aF-3.1504494094608804
asS'uplifting'
p207
(lp208
F-3.421768401206924
aF-3.1504494094608804
asS'environment'
p209
(lp210
F-3.421768401206924
aF-3.1504494094608804
asS'brilliant'
p211
(lp212
F-3.421768401206924
aF-2.6063813651106047
asS'involved'
p213
(lp214
F-2.9446471464872612
aF-3.4514794051248616
asS'exceptionally'
p215
(lp216
F-3.421768401206924
aF-3.1504494094608804
asS'piercing'
p217
(lp218
F-3.421768401206924
aF-3.1504494094608804
asS'experience'
p219
(lp220
F-2.9446471464872612
aF-2.548389418132918
asS'bittersweet'
p221
(lp222
F-3.421768401206924
aF-2.974358150405199
asS'women'
p223
(lp224
F-3.421768401206924
aF-3.1504494094608804
asS'pitfalls'
p225
(lp226
F-2.9446471464872612
aF-3.4514794051248616
asS'action'
p227
(lp228
F-2.576670361192667
aF-3.4514794051248616
asS'deserves'
p229
(lp230
F-3.1207384055429426
aF-3.4514794051248616
asS'makes'
p231
(lp232
F-3.421768401206924
aF-2.974358150405199
asS'nowhere'
p233
(lp234
F-3.1207384055429426
aF-3.4514794051248616
asS'grandkids'
p235
(lp236
F-3.421768401206924
aF-3.1504494094608804
asS'breathtaking'
p237
(lp238
F-3.421768401206924
aF-3.1504494094608804
asS'love'
p239
(lp240
F-3.421768401206924
aF-2.849419413796899
asS'unrecoverable'
p241
(lp242
F-2.9446471464872612
aF-3.4514794051248616
asS'spy'
p243
(lp244
F-3.421768401206924
aF-2.974358150405199
asS'highly'
p245
(lp246
F-3.421768401206924
aF-2.752509400788843
asS'psychological'
p247
(lp248
F-3.421768401206924
aF-3.4514794051248616
asS'patience'
p249
(lp250
F-3.1207384055429426
aF-3.4514794051248616
asS'wit'
p251
(lp252
F-3.421768401206924
aF-2.974358150405199
asS'aimed'
p253
(lp254
F-3.421768401206924
aF-3.1504494094608804
asS'resolutions'
p255
(lp256
F-3.1207384055429426
aF-3.4514794051248616
asS'should'
p257
(lp258
F-3.1207384055429426
aF-3.1504494094608804
asS'gradeschool'
p259
(lp260
F-3.421768401206924
aF-3.1504494094608804
asS'plot'
p261
(lp262
F-2.421768401206924
aF-3.4514794051248616
asS'crap'
p263
(lp264
F-2.9446471464872612
aF-3.4514794051248616
asS'vivid'
p265
(lp266
F-3.421768401206924
aF-3.1504494094608804
asS'remains'
p267
(lp268
F-3.421768401206924
aF-2.974358150405199
asS'forcefully'
p269
(lp270
F-3.421768401206924
aF-3.1504494094608804
asS'sports'
p271
(lp272
F-3.1207384055429426
aF-3.4514794051248616
asS'few'
p273
(lp274
F-3.1207384055429426
aF-3.4514794051248616
asS'wonderfully'
p275
(lp276
F-3.421768401206924
aF-2.974358150405199
asS'wondering'
p277
(lp278
F-3.421768401206924
aF-3.4514794051248616
asS'memory'
p279
(lp280
F-3.421768401206924
aF-3.4514794051248616
asS'films'
p281
(lp282
F-2.64361715082328
aF-3.1504494094608804
asS'harrowing'
p283
(lp284
F-3.421768401206924
aF-3.1504494094608804
asS'tell'
p285
(lp286
F-3.1207384055429426
aF-3.4514794051248616
asS'more'
p287
(lp288
F-2.1913194798286497
aF-2.548389418132918
asS'flat'
p289
(lp290
F-2.9446471464872612
aF-3.4514794051248616
asS'clever'
p291
(lp292
F-3.421768401206924
aF-2.849419413796899
asS'evening'
p293
(lp294
F-3.421768401206924
aF-3.1504494094608804
asS'successful'
p295
(lp296
F-3.421768401206924
aF-3.1504494094608804
asS'oscar'
p297
(lp298
F-3.421768401206924
aF-3.1504494094608804
asS'company'
p299
(lp300
F-3.1207384055429426
aF-3.4514794051248616
asS'charming'
p301
(lp302
F-3.421768401206924
aF-3.1504494094608804
asS'visual'
p303
(lp304
F-3.421768401206924
aF-2.974358150405199
asS'warm'
p305
(lp306
F-3.421768401206924
aF-2.849419413796899
asS'incompetent'
p307
(lp308
F-3.1207384055429426
aF-3.4514794051248616
asS'entwined'
p309
(lp310
F-3.421768401206924
aF-3.1504494094608804
asS'iii'
p311
(lp312
F-3.421768401206924
aF-3.1504494094608804
asS'must'
p313
(lp314
F-3.421768401206924
aF-3.1504494094608804
asS'none'
p315
(lp316
F-3.1207384055429426
aF-3.4514794051248616
asS'pleasing'
p317
(lp318
F-3.421768401206924
aF-3.1504494094608804
asS'word'
p319
(lp320
F-3.1207384055429426
aF-3.4514794051248616
asS'room'
p321
(lp322
F-2.9446471464872612
aF-3.4514794051248616
asS'hour'
p323
(lp324
F-2.9446471464872612
aF-3.1504494094608804
asS'car'
p325
(lp326
F-3.1207384055429426
aF-3.4514794051248616
asS'ride'
p327
(lp328
F-3.421768401206924
aF-2.974358150405199
asS'blade'
p329
(lp330
F-3.1207384055429426
aF-3.4514794051248616
asS'soul'
p331
(lp332
F-3.1207384055429426
aF-3.4514794051248616
asS'movies'
p333
(lp334
F-2.9446471464872612
aF-2.6063813651106047
asS'sour'
p335
(lp336
F-3.1207384055429426
aF-3.4514794051248616
asS'indescribably'
p337
(lp338
F-2.9446471464872612
aF-3.4514794051248616
asS'welledited'
p339
(lp340
F-3.421768401206924
aF-3.1504494094608804
asS'making'
p341
(lp342
F-3.1207384055429426
aF-3.4514794051248616
asS'male'
p343
(lp344
F-3.421768401206924
aF-3.1504494094608804
asS'conformity'
p345
(lp346
F-3.1207384055429426
aF-3.4514794051248616
asS'history'
p347
(lp348
F-2.9446471464872612
aF-3.1504494094608804
asS'beautiful'
p349
(lp350
F-3.421768401206924
aF-2.974358150405199
asS'heart'
p351
(lp352
F-3.421768401206924
aF-2.849419413796899
asS'ingenuity'
p353
(lp354
F-3.1207384055429426
aF-3.4514794051248616
asS'laughs'
p355
(lp356
F-2.9446471464872612
aF-3.4514794051248616
asS'pieces'
p357
(lp358
F-3.421768401206924
aF-3.1504494094608804
asS'imitation'
p359
(lp360
F-3.1207384055429426
aF-3.4514794051248616
asS'documenting'
p361
(lp362
F-3.421768401206924
aF-3.1504494094608804
asS'sense'
p363
(lp364
F-3.1207384055429426
aF-3.1504494094608804
asS'lacks'
p365
(lp366
F-3.1207384055429426
aF-3.4514794051248616
asS'mainstream'
p367
(lp368
F-3.1207384055429426
aF-3.4514794051248616
asS'huge'
p369
(lp370
F-3.1207384055429426
aF-3.4514794051248616
asS'needs'
p371
(lp372
F-3.1207384055429426
aF-3.4514794051248616
asS'redundancy'
p373
(lp374
F-2.9446471464872612
aF-3.4514794051248616
asS'end'
p375
(lp376
F-2.8197084098789613
aF-3.1504494094608804
asS'daring'
p377
(lp378
F-3.421768401206924
aF-3.1504494094608804
asS'delivers'
p379
(lp380
F-3.421768401206924
aF-2.752509400788843
asS'sit'
p381
(lp382
F-2.64361715082328
aF-3.4514794051248616
asS'rather'
p383
(lp384
F-2.9446471464872612
aF-3.4514794051248616
asS'acts'
p385
(lp386
F-3.421768401206924
aF-3.1504494094608804
asS'feature'
p387
(lp388
F-3.421768401206924
aF-2.6733281547412178
asS'far'
p389
(lp390
F-3.1207384055429426
aF-3.1504494094608804
asS'hot'
p391
(lp392
F-3.421768401206924
aF-3.1504494094608804
asS'fourth'
p393
(lp394
F-3.421768401206924
aF-3.1504494094608804
asS'instead'
p395
(lp396
F-3.1207384055429426
aF-3.4514794051248616
asS'comedy'
p397
(lp398
F-2.51867841421498
aF-2.3053513694466234
asS'intelligent'
p399
(lp400
F-3.421768401206924
aF-2.849419413796899
asS'profile'
p401
(lp402
F-3.421768401206924
aF-3.1504494094608804
asS'finale'
p403
(lp404
F-3.421768401206924
aF-3.1504494094608804
asS'levy'
p405
(lp406
F-3.421768401206924
aF-3.1504494094608804
asS'intended'
p407
(lp408
F-3.421768401206924
aF-3.4514794051248616
asS'capture'
p409
(lp410
F-3.421768401206924
aF-2.849419413796899
asS'may'
p411
(lp412
F-3.421768401206924
aF-2.974358150405199
asS'demonstrates'
p413
(lp414
F-3.421768401206924
aF-2.849419413796899
asS'sacrifice'
p415
(lp416
F-3.421768401206924
aF-3.1504494094608804
asS'exoticism'
p417
(lp418
F-3.421768401206924
aF-3.1504494094608804
asS'collection'
p419
(lp420
F-3.421768401206924
aF-3.1504494094608804
asS'designed'
p421
(lp422
F-3.1207384055429426
aF-3.4514794051248616
asS'date'
p423
(lp424
F-3.1207384055429426
aF-3.4514794051248616
asS'such'
p425
(lp426
F-3.1207384055429426
aF-2.849419413796899
asS'dumbo'
p427
(lp428
F-3.421768401206924
aF-3.1504494094608804
asS'nomination'
p429
(lp430
F-3.421768401206924
aF-3.1504494094608804
asS'bleak'
p431
(lp432
F-3.1207384055429426
aF-3.4514794051248616
asS'man'
p433
(lp434
F-3.421768401206924
aF-3.1504494094608804
asS'contrived'
p435
(lp436
F-2.9446471464872612
aF-3.4514794051248616
asS'short'
p437
(lp438
F-3.1207384055429426
aF-3.4514794051248616
asS'natural'
p439
(lp440
F-3.421768401206924
aF-3.1504494094608804
asS'splendid'
p441
(lp442
F-3.421768401206924
aF-3.1504494094608804
asS'effective'
p443
(lp444
F-3.421768401206924
aF-3.1504494094608804
asS'life'
p445
(lp446
F-2.51867841421498
aF-3.1504494094608804
asS'pitchperfect'
p447
(lp448
F-3.421768401206924
aF-3.1504494094608804
asS'redundant'
p449
(lp450
F-3.1207384055429426
aF-3.4514794051248616
asS'tale'
p451
(lp452
F-3.421768401206924
aF-2.849419413796899
asS'funniest'
p453
(lp454
F-3.421768401206924
aF-3.1504494094608804
asS'keeps'
p455
(lp456
F-3.1207384055429426
aF-3.4514794051248616
asS'worst'
p457
(lp458
F-2.64361715082328
aF-3.4514794051248616
asS'comfort'
p459
(lp460
F-3.421768401206924
aF-3.1504494094608804
asS'unfolds'
p461
(lp462
F-3.421768401206924
aF-3.1504494094608804
asS'muzak'
p463
(lp464
F-2.9446471464872612
aF-3.4514794051248616
asS'developed'
p465
(lp466
F-3.1207384055429426
aF-3.4514794051248616
asS'insight'
p467
(lp468
F-3.421768401206924
aF-2.974358150405199
asS'midnight'
p469
(lp470
F-3.421768401206924
aF-2.849419413796899
asS'satisfied'
p471
(lp472
F-3.421768401206924
aF-3.1504494094608804
asS'years'
p473
(lp474
F-2.9446471464872612
aF-2.6733281547412178
asS'playful'
p475
(lp476
F-3.421768401206924
aF-3.1504494094608804
asS'course'
p477
(lp478
F-3.1207384055429426
aF-3.4514794051248616
asS'through'
p479
(lp480
F-2.3803757160486985
aF-3.1504494094608804
asS'budding'
p481
(lp482
F-3.421768401206924
aF-3.1504494094608804
asS'visceral'
p483
(lp484
F-3.421768401206924
aF-3.1504494094608804
asS'operative'
p485
(lp486
F-3.1207384055429426
aF-3.4514794051248616
asS'before'
p487
(lp488
F-2.9446471464872612
aF-3.4514794051248616
asS'perfect'
p489
(lp490
F-3.421768401206924
aF-3.1504494094608804
asS'style'
p491
(lp492
F-3.421768401206924
aF-2.974358150405199
asS'conned'
p493
(lp494
F-3.421768401206924
aF-3.1504494094608804
asS'broiling'
p495
(lp496
F-2.9446471464872612
aF-3.4514794051248616
asS'incoherence'
p497
(lp498
F-2.9446471464872612
aF-3.4514794051248616
asS'fit'
p499
(lp500
F-2.9446471464872612
aF-3.4514794051248616
asS'call'
p501
(lp502
F-3.421768401206924
aF-3.1504494094608804
asS'interesting'
p503
(lp504
F-2.8197084098789613
aF-2.849419413796899
asS'trying'
p505
(lp506
F-3.1207384055429426
aF-3.4514794051248616
asS'jim'
p507
(lp508
F-3.421768401206924
aF-3.4514794051248616
asS'better'
p509
(lp510
F-3.421768401206924
aF-3.1504494094608804
asS'production'
p511
(lp512
F-2.9446471464872612
aF-3.4514794051248616
asS'compelling'
p513
(lp514
F-3.421768401206924
aF-3.1504494094608804
asS'astonish'
p515
(lp516
F-3.421768401206924
aF-3.1504494094608804
asS'drumline'
p517
(lp518
F-3.421768401206924
aF-3.1504494094608804
asS'cool'
p519
(lp520
F-3.421768401206924
aF-3.1504494094608804
asS'admirable'
p521
(lp522
F-3.421768401206924
aF-3.1504494094608804
asS'overcome'
p523
(lp524
F-3.1207384055429426
aF-3.4514794051248616
asS'pleasurable'
p525
(lp526
F-3.421768401206924
aF-3.1504494094608804
asS'good'
p527
(lp528
F-2.51867841421498
aF-2.3722981590772365
asS'drama'
p529
(lp530
F-3.421768401206924
aF-2.497236895685537
asS'material'
p531
(lp532
F-2.8197084098789613
aF-3.4514794051248616
asS'flatout'
p533
(lp534
F-3.421768401206924
aF-3.1504494094608804
asS'scene'
p535
(lp536
F-3.421768401206924
aF-3.4514794051248616
asS'band'
p537
(lp538
F-3.421768401206924
aF-3.1504494094608804
asS'walls'
p539
(lp540
F-3.421768401206924
aF-3.1504494094608804
asS'touching'
p541
(lp542
F-3.421768401206924
aF-3.1504494094608804
asS'litmus'
p543
(lp544
F-3.1207384055429426
aF-3.4514794051248616
asS'half'
p545
(lp546
F-2.8197084098789613
aF-3.4514794051248616
asS'not'
p547
(lp548
F-2.3425871551592987
aF-2.6063813651106047
asS'downright'
p549
(lp550
F-3.1207384055429426
aF-3.4514794051248616
asS'silver'
p551
(lp552
F-3.421768401206924
aF-3.1504494094608804
asS'viewers'
p553
(lp554
F-3.421768401206924
aF-3.1504494094608804
asS'represents'
p555
(lp556
F-3.421768401206924
aF-3.1504494094608804
asS'gets'
p557
(lp558
F-2.9446471464872612
aF-3.1504494094608804
asS'opera'
p559
(lp560
F-3.421768401206924
aF-3.1504494094608804
asS'always'
p561
(lp562
F-3.421768401206924
aF-2.6733281547412178
asS'debut'
p563
(lp564
F-3.421768401206924
aF-2.752509400788843
asS'delightful'
p565
(lp566
F-3.421768401206924
aF-3.1504494094608804
asS'conflict'
p567
(lp568
F-3.421768401206924
aF-3.1504494094608804
asS'truth'
p569
(lp570
F-3.421768401206924
aF-3.1504494094608804
asS'each'
p571
(lp572
F-3.421768401206924
aF-2.548389418132918
asS'done'
p573
(lp574
F-3.421768401206924
aF-3.1504494094608804
asS'entirely'
p575
(lp576
F-2.722798396870905
aF-3.4514794051248616
asS'friendship'
p577
(lp578
F-3.421768401206924
aF-3.1504494094608804
asS'studios'
p579
(lp580
F-3.1207384055429426
aF-3.4514794051248616
asS'everyone'
p581
(lp582
F-2.9446471464872612
aF-3.4514794051248616
asS'delicious'
p583
(lp584
F-3.421768401206924
aF-3.1504494094608804
asS'doing'
p585
(lp586
F-3.421768401206924
aF-3.1504494094608804
asS'series'
p587
(lp588
F-3.1207384055429426
aF-3.4514794051248616
asS'energy'
p589
(lp590
F-3.421768401206924
aF-2.849419413796899
asS'hard'
p591
(lp592
F-2.9446471464872612
aF-3.1504494094608804
asS'diane'
p593
(lp594
F-3.421768401206924
aF-3.1504494094608804
asS'idea'
p595
(lp596
F-2.722798396870905
aF-2.974358150405199
asS'engaging'
p597
(lp598
F-3.421768401206924
aF-2.6063813651106047
asS'society'
p599
(lp600
F-3.421768401206924
aF-3.1504494094608804
asS'awful'
p601
(lp602
F-3.1207384055429426
aF-3.4514794051248616
asS'weave'
p603
(lp604
F-3.421768401206924
aF-3.1504494094608804
asS'stealing'
p605
(lp606
F-2.9446471464872612
aF-3.4514794051248616
asS'girl'
p607
(lp608
F-3.421768401206924
aF-3.1504494094608804
asS'message'
p609
(lp610
F-3.421768401206924
aF-3.4514794051248616
asS'special'
p611
(lp612
F-3.1207384055429426
aF-3.4514794051248616
asS'really'
p613
(lp614
F-2.64361715082328
aF-3.4514794051248616
asS'ultimately'
p615
(lp616
F-3.1207384055429426
aF-3.4514794051248616
asS'jackson'
p617
(lp618
F-3.421768401206924
aF-3.4514794051248616
asS'stitch'
p619
(lp620
F-3.421768401206924
aF-3.1504494094608804
asS'entertainment'
p621
(lp622
F-2.9446471464872612
aF-3.4514794051248616
asS'god'
p623
(lp624
F-3.421768401206924
aF-3.1504494094608804
asS'since'
p625
(lp626
F-2.9446471464872612
aF-3.1504494094608804
asS'sitcomworthy'
p627
(lp628
F-3.1207384055429426
aF-3.4514794051248616
asS'communal'
p629
(lp630
F-3.421768401206924
aF-3.1504494094608804
asS'looking'
p631
(lp632
F-3.1207384055429426
aF-3.4514794051248616
asS're'
p633
(lp634
F-2.8197084098789613
aF-3.1504494094608804
asS'acting'
p635
(lp636
F-2.576670361192667
aF-2.849419413796899
asS'humanistic'
p637
(lp638
F-3.421768401206924
aF-3.1504494094608804
asS'hilarious'
p639
(lp640
F-3.421768401206924
aF-2.4100867199666363
asS'suggesting'
p641
(lp642
F-3.421768401206924
aF-3.1504494094608804
asS'formula'
p643
(lp644
F-3.1207384055429426
aF-3.4514794051248616
asS'tiresome'
p645
(lp646
F-3.1207384055429426
aF-3.4514794051248616
asS'dominate'
p647
(lp648
F-3.421768401206924
aF-3.1504494094608804
asS'monster'
p649
(lp650
F-3.1207384055429426
aF-3.4514794051248616
asS'existed'
p651
(lp652
F-3.421768401206924
aF-3.1504494094608804
asS'easily'
p653
(lp654
F-3.421768401206924
aF-3.1504494094608804
asS'frank'
p655
(lp656
F-3.421768401206924
aF-3.1504494094608804
asS'story'
p657
(lp658
F-2.51867841421498
aF-2.497236895685537
asS'quite'
p659
(lp660
F-3.1207384055429426
aF-3.4514794051248616
asS'extraordinary'
p661
(lp662
F-3.421768401206924
aF-3.1504494094608804
asS'completely'
p663
(lp664
F-3.421768401206924
aF-3.4514794051248616
asS'masterpiece'
p665
(lp666
F-3.421768401206924
aF-2.849419413796899
asS'surely'
p667
(lp668
F-3.1207384055429426
aF-3.4514794051248616
asS'imagine'
p669
(lp670
F-2.722798396870905
aF-3.4514794051248616
asS'put'
p671
(lp672
F-2.9446471464872612
aF-3.4514794051248616
asS'wanted'
p673
(lp674
F-3.421768401206924
aF-3.4514794051248616
asS'care'
p675
(lp676
F-2.8197084098789613
aF-2.974358150405199
asS'firstclass'
p677
(lp678
F-3.421768401206924
aF-3.1504494094608804
asS'broaches'
p679
(lp680
F-3.421768401206924
aF-3.1504494094608804
asS'echelons'
p681
(lp682
F-3.421768401206924
aF-3.1504494094608804
asS'shocking'
p683
(lp684
F-3.1207384055429426
aF-3.4514794051248616
asS'subzero'
p685
(lp686
F-3.1207384055429426
aF-3.4514794051248616
asS'starts'
p687
(lp688
F-3.1207384055429426
aF-3.4514794051248616
asS'days'
p689
(lp690
F-2.9446471464872612
aF-3.4514794051248616
asS'british'
p691
(lp692
F-3.421768401206924
aF-3.1504494094608804
asS'times'
p693
(lp694
F-2.9446471464872612
aF-3.4514794051248616
asS'motion'
p695
(lp696
F-3.421768401206924
aF-2.974358150405199
asS'thing'
p697
(lp698
F-3.1207384055429426
aF-3.1504494094608804
asS'american'
p699
(lp700
F-3.421768401206924
aF-2.974358150405199
asS'chills'
p701
(lp702
F-3.421768401206924
aF-2.849419413796899
asS'loud'
p703
(lp704
F-2.9446471464872612
aF-3.4514794051248616
asS'solidly'
p705
(lp706
F-3.421768401206924
aF-3.1504494094608804
asS'flick'
p707
(lp708
F-3.421768401206924
aF-3.4514794051248616
asS'vulgar'
p709
(lp710
F-3.421768401206924
aF-3.1504494094608804
asS'features'
p711
(lp712
F-3.421768401206924
aF-3.1504494094608804
asS'apocalypse'
p713
(lp714
F-3.421768401206924
aF-3.1504494094608804
asS'feel'
p715
(lp716
F-2.576670361192667
aF-2.849419413796899
asS'powerful'
p717
(lp718
F-3.421768401206924
aF-2.974358150405199
asS'inauthentic'
p719
(lp720
F-3.1207384055429426
aF-3.4514794051248616
asS'soothing'
p721
(lp722
F-2.9446471464872612
aF-3.4514794051248616
asS'fits'
p723
(lp724
F-3.421768401206924
aF-3.1504494094608804
asS'revolution'
p725
(lp726
F-3.1207384055429426
aF-3.4514794051248616
asS'americans'
p727
(lp728
F-3.421768401206924
aF-3.1504494094608804
asS'fast'
p729
(lp730
F-3.421768401206924
aF-3.1504494094608804
asS'another'
p731
(lp732
F-2.8197084098789613
aF-3.4514794051248616
asS'gasp'
p733
(lp734
F-3.421768401206924
aF-3.1504494094608804
asS'bland'
p735
(lp736
F-2.9446471464872612
aF-3.4514794051248616
asS'impossible'
p737
(lp738
F-3.1207384055429426
aF-3.4514794051248616
asS'comic'
p739
(lp740
F-3.421768401206924
aF-2.974358150405199
asS'quality'
p741
(lp742
F-3.421768401206924
aF-3.4514794051248616
asS'concert'
p743
(lp744
F-3.1207384055429426
aF-3.4514794051248616
asS'little'
p745
(lp746
F-2.51867841421498
aF-2.974358150405199
asS'cynical'
p747
(lp748
F-3.1207384055429426
aF-3.4514794051248616
asS'script'
p749
(lp750
F-2.8197084098789613
aF-3.4514794051248616
asS'murky'
p751
(lp752
F-3.1207384055429426
aF-3.4514794051248616
asS'interviews'
p753
(lp754
F-3.421768401206924
aF-3.1504494094608804
asS'structured'
p755
(lp756
F-2.9446471464872612
aF-3.4514794051248616
asS'twisted'
p757
(lp758
F-3.421768401206924
aF-3.1504494094608804
asS'fiction'
p759
(lp760
F-3.1207384055429426
aF-3.4514794051248616
asS'anyone'
p761
(lp762
F-2.9446471464872612
aF-3.1504494094608804
asS'flimsy'
p763
(lp764
F-3.1207384055429426
aF-3.4514794051248616
asS'wonderful'
p765
(lp766
F-3.421768401206924
aF-2.849419413796899
asS'too'
p767
(lp768
F-2.3803757160486985
aF-3.4514794051248616
asS'hollywood'
p769
(lp770
F-3.421768401206924
aF-3.4514794051248616
asS'kid'
p771
(lp772
F-3.421768401206924
aF-3.1504494094608804
asS'final'
p773
(lp774
F-3.1207384055429426
aF-3.4514794051248616
asS'painful'
p775
(lp776
F-3.421768401206924
aF-3.1504494094608804
asS'urban'
p777
(lp778
F-3.421768401206924
aF-3.1504494094608804
asS'rewards'
p779
(lp780
F-3.421768401206924
aF-3.1504494094608804
asS'ambiguous'
p781
(lp782
F-3.421768401206924
aF-3.1504494094608804
asS'uncommonly'
p783
(lp784
F-3.421768401206924
aF-3.1504494094608804
asS'exactly'
p785
(lp786
F-3.1207384055429426
aF-3.4514794051248616
asS'rejected'
p787
(lp788
F-3.1207384055429426
aF-3.4514794051248616
asS'mindnumbingly'
p789
(lp790
F-2.9446471464872612
aF-3.4514794051248616
asS'dentist'
p791
(lp792
F-2.9446471464872612
aF-3.4514794051248616
asS'predictable'
p793
(lp794
F-2.722798396870905
aF-3.4514794051248616
asS'somewhat'
p795
(lp796
F-3.421768401206924
aF-3.1504494094608804
asS'wasted'
p797
(lp798
F-2.9446471464872612
aF-3.4514794051248616
asS'attempt'
p799
(lp800
F-3.1207384055429426
aF-3.4514794051248616
asS'believe'
p801
(lp802
F-3.1207384055429426
aF-3.4514794051248616
asS'crawl'
p803
(lp804
F-3.1207384055429426
aF-3.4514794051248616
asS'white'
p805
(lp806
F-3.421768401206924
aF-3.1504494094608804
asS'begins'
p807
(lp808
F-3.421768401206924
aF-3.4514794051248616
asS'past'
p809
(lp810
F-3.1207384055429426
aF-3.4514794051248616
asS'kind'
p811
(lp812
F-3.1207384055429426
aF-2.974358150405199
asS'namesake'
p813
(lp814
F-3.421768401206924
aF-3.1504494094608804
asS'rival'
p815
(lp816
F-3.421768401206924
aF-3.1504494094608804
asS'scenes'
p817
(lp818
F-3.1207384055429426
aF-2.974358150405199
asS'project'
p819
(lp820
F-3.1207384055429426
aF-3.4514794051248616
asS'sabotaged'
p821
(lp822
F-3.1207384055429426
aF-3.4514794051248616
asS'appealing'
p823
(lp824
F-3.421768401206924
aF-3.1504494094608804
asS'shyamalan'
p825
(lp826
F-3.421768401206924
aF-3.1504494094608804
asS'silly'
p827
(lp828
F-2.9446471464872612
aF-3.4514794051248616
asS'selfcontrol'
p829
(lp830
F-3.1207384055429426
aF-3.4514794051248616
asS'were'
p831
(lp832
F-2.9446471464872612
aF-3.4514794051248616
asS'feeling'
p833
(lp834
F-3.421768401206924
aF-3.1504494094608804
asS'solely'
p835
(lp836
F-3.421768401206924
aF-3.1504494094608804
asS'damned'
p837
(lp838
F-3.421768401206924
aF-3.1504494094608804
asS'imaginative'
p839
(lp840
F-3.421768401206924
aF-2.849419413796899
asS'puzzling'
p841
(lp842
F-3.1207384055429426
aF-3.1504494094608804
asS'false'
p843
(lp844
F-2.9446471464872612
aF-3.4514794051248616
asS'outstanding'
p845
(lp846
F-3.421768401206924
aF-3.1504494094608804
asS'turned'
p847
(lp848
F-3.421768401206924
aF-3.4514794051248616
asS'gently'
p849
(lp850
F-3.421768401206924
aF-3.1504494094608804
asS'reno'
p851
(lp852
F-3.421768401206924
aF-3.1504494094608804
asS'sad'
p853
(lp854
F-3.1207384055429426
aF-3.4514794051248616
asS'suspense'
p855
(lp856
F-3.421768401206924
aF-3.1504494094608804
asS'close'
p857
(lp858
F-3.1207384055429426
aF-3.4514794051248616
asS'bigelow'
p859
(lp860
F-3.421768401206924
aF-3.1504494094608804
asS'seen'
p861
(lp862
F-3.1207384055429426
aF-3.4514794051248616
asS'seem'
p863
(lp864
F-3.1207384055429426
aF-3.4514794051248616
asS'edgy'
p865
(lp866
F-3.421768401206924
aF-2.974358150405199
asS'saw'
p867
(lp868
F-2.9446471464872612
aF-3.4514794051248616
asS'clearly'
p869
(lp870
F-3.1207384055429426
aF-3.4514794051248616
asS'afraid'
p871
(lp872
F-3.421768401206924
aF-3.1504494094608804
asS'genuine'
p873
(lp874
F-3.421768401206924
aF-3.1504494094608804
asS'something'
p875
(lp876
F-2.64361715082328
aF-3.1504494094608804
asS'skillful'
p877
(lp878
F-3.421768401206924
aF-3.1504494094608804
asS'thoroughly'
p879
(lp880
F-2.8197084098789613
aF-3.1504494094608804
asS'latter'
p881
(lp882
F-2.9446471464872612
aF-3.4514794051248616
asS'trapped'
p883
(lp884
F-3.1207384055429426
aF-3.4514794051248616
asS'ideas'
p885
(lp886
F-3.1207384055429426
aF-3.4514794051248616
asS'camouflage'
p887
(lp888
F-3.1207384055429426
aF-3.4514794051248616
asS'terrific'
p889
(lp890
F-3.421768401206924
aF-2.974358150405199
asS'recommended'
p891
(lp892
F-2.9446471464872612
aF-3.4514794051248616
asS'animation'
p893
(lp894
F-3.421768401206924
aF-2.974358150405199
asS'take'
p895
(lp896
F-3.421768401206924
aF-2.974358150405199
asS'laughed'
p897
(lp898
F-3.421768401206924
aF-3.1504494094608804
asS'finding'
p899
(lp900
F-3.1207384055429426
aF-3.4514794051248616
asS'performance'
p901
(lp902
F-3.421768401206924
aF-2.497236895685537
asS'hedonistic'
p903
(lp904
F-3.421768401206924
aF-3.1504494094608804
asS'begin'
p905
(lp906
F-2.9446471464872612
aF-3.4514794051248616
asS'sure'
p907
(lp908
F-2.8197084098789613
aF-3.4514794051248616
asS'bruce'
p909
(lp910
F-3.421768401206924
aF-3.1504494094608804
asS'knew'
p911
(lp912
F-3.421768401206924
aF-3.1504494094608804
asS'paid'
p913
(lp914
F-3.1207384055429426
aF-3.4514794051248616
asS'assault'
p915
(lp916
F-3.1207384055429426
aF-3.4514794051248616
asS'involving'
p917
(lp918
F-3.421768401206924
aF-3.1504494094608804
asS'charm'
p919
(lp920
F-3.1207384055429426
aF-3.1504494094608804
asS'nothing'
p921
(lp922
F-2.64361715082328
aF-3.4514794051248616
asS'laughter'
p923
(lp924
F-3.421768401206924
aF-3.1504494094608804
asS'why'
p925
(lp926
F-2.722798396870905
aF-3.4514794051248616
asS'thriller'
p927
(lp928
F-3.1207384055429426
aF-2.6063813651106047
asS'machismo'
p929
(lp930
F-3.421768401206924
aF-3.1504494094608804
asS'refreshing'
p931
(lp932
F-3.421768401206924
aF-3.1504494094608804
asS'surprising'
p933
(lp934
F-3.421768401206924
aF-2.6733281547412178
asS'sweeping'
p935
(lp936
F-3.421768401206924
aF-3.1504494094608804
asS'performances'
p937
(lp938
F-3.421768401206924
aF-2.2473594224689366
asS'prevails'
p939
(lp940
F-3.421768401206924
aF-3.1504494094608804
asS'proud'
p941
(lp942
F-3.421768401206924
aF-3.1504494094608804
asS'm'
p943
(lp944
F-3.421768401206924
aF-3.1504494094608804
asS'hamfisted'
p945
(lp946
F-3.1207384055429426
aF-3.4514794051248616
asS'gracefully'
p947
(lp948
F-3.421768401206924
aF-3.1504494094608804
asS'astonishing'
p949
(lp950
F-3.421768401206924
aF-3.1504494094608804
asS'definitely'
p951
(lp952
F-3.1207384055429426
aF-3.4514794051248616
asS'propels'
p953
(lp954
F-3.421768401206924
aF-3.1504494094608804
asS'absurd'
p955
(lp956
F-3.421768401206924
aF-3.1504494094608804
asS'creepy'
p957
(lp958
F-3.421768401206924
aF-2.849419413796899
asS'deeply'
p959
(lp960
F-3.421768401206924
aF-2.849419413796899
asS'everything'
p961
(lp962
F-3.1207384055429426
aF-3.4514794051248616
asS'entertaining'
p963
(lp964
F-3.1207384055429426
aF-2.6733281547412178
asS'blend'
p965
(lp966
F-3.421768401206924
aF-3.1504494094608804
asS'fact'
p967
(lp968
F-3.1207384055429426
aF-3.4514794051248616
asS'walking'
p969
(lp970
F-3.421768401206924
aF-3.1504494094608804
asS'prim'
p971
(lp972
F-3.421768401206924
aF-3.1504494094608804
asS'random'
p973
(lp974
F-3.1207384055429426
aF-3.4514794051248616
asS'cheap'
p975
(lp976
F-3.1207384055429426
aF-3.4514794051248616
asS'contemporary'
p977
(lp978
F-3.421768401206924
aF-3.1504494094608804
asS'ending'
p979
(lp980
F-3.421768401206924
aF-3.1504494094608804
asS'bring'
p981
(lp982
F-3.421768401206924
aF-3.1504494094608804
asS'solutions'
p983
(lp984
F-3.1207384055429426
aF-3.4514794051248616
asS'fuzzy'
p985
(lp986
F-3.421768401206924
aF-3.1504494094608804
asS'telling'
p987
(lp988
F-3.1207384055429426
aF-2.6733281547412178
asS'ripoff'
p989
(lp990
F-2.9446471464872612
aF-3.4514794051248616
asS'fine'
p991
(lp992
F-3.1207384055429426
aF-3.4514794051248616
asS'find'
p993
(lp994
F-2.9446471464872612
aF-2.974358150405199
asS'giant'
p995
(lp996
F-3.1207384055429426
aF-3.4514794051248616
asS'busy'
p997
(lp998
F-3.1207384055429426
aF-3.4514794051248616
asS'painfully'
p999
(lp1000
F-3.1207384055429426
aF-3.4514794051248616
asS'spite'
p1001
(lp1002
F-3.421768401206924
aF-3.1504494094608804
asS'justice'
p1003
(lp1004
F-3.421768401206924
aF-3.1504494094608804
asS'humor'
p1005
(lp1006
F-3.1207384055429426
aF-2.752509400788843
asS'winner'
p1007
(lp1008
F-3.421768401206924
aF-3.1504494094608804
asS'waiting'
p1009
(lp1010
F-2.8197084098789613
aF-3.4514794051248616
asS'crime'
p1011
(lp1012
F-3.1207384055429426
aF-2.849419413796899
asS'moments'
p1013
(lp1014
F-3.421768401206924
aF-2.849419413796899
asS'bliss'
p1015
(lp1016
F-3.421768401206924
aF-3.1504494094608804
asS'touched'
p1017
(lp1018
F-3.421768401206924
aF-3.1504494094608804
asS'pretty'
p1019
(lp1020
F-3.421768401206924
aF-2.974358150405199
asS'captures'
p1021
(lp1022
F-3.421768401206924
aF-3.1504494094608804
asS'hardened'
p1023
(lp1024
F-3.1207384055429426
aF-3.4514794051248616
asS'constant'
p1025
(lp1026
F-3.421768401206924
aF-3.1504494094608804
asS'narrative'
p1027
(lp1028
F-2.64361715082328
aF-3.4514794051248616
asS'hit'
p1029
(lp1030
F-3.421768401206924
aF-3.1504494094608804
asS'creeps'
p1031
(lp1032
F-3.1207384055429426
aF-3.4514794051248616
asS'watching'
p1033
(lp1034
F-2.722798396870905
aF-3.1504494094608804
asS'beat'
p1035
(lp1036
F-3.421768401206924
aF-3.1504494094608804
asS'familiar'
p1037
(lp1038
F-3.1207384055429426
aF-3.4514794051248616
asS'goosebumps'
p1039
(lp1040
F-3.421768401206924
aF-3.1504494094608804
asS'horrible'
p1041
(lp1042
F-2.8197084098789613
aF-3.4514794051248616
asS'watch'
p1043
(lp1044
F-3.1207384055429426
aF-2.974358150405199
asS'cheaper'
p1045
(lp1046
F-3.1207384055429426
aF-3.4514794051248616
asS'watercolor'
p1047
(lp1048
F-3.421768401206924
aF-3.1504494094608804
asS'feels'
p1049
(lp1050
F-2.64361715082328
aF-3.4514794051248616
asS'malaise'
p1051
(lp1052
F-3.1207384055429426
aF-3.4514794051248616
asS'inuit'
p1053
(lp1054
F-3.421768401206924
aF-3.1504494094608804
asS'nearly'
p1055
(lp1056
F-2.9446471464872612
aF-3.4514794051248616
asS'cushion'
p1057
(lp1058
F-2.9446471464872612
aF-3.4514794051248616
asS'smug'
p1059
(lp1060
F-3.1207384055429426
aF-3.4514794051248616
asS'contriving'
p1061
(lp1062
F-3.1207384055429426
aF-3.4514794051248616
asS'filmmaker'
p1063
(lp1064
F-3.421768401206924
aF-2.974358150405199
asS'endless'
p1065
(lp1066
F-3.1207384055429426
aF-3.4514794051248616
asS'artist'
p1067
(lp1068
F-3.421768401206924
aF-3.1504494094608804
asS'nicely'
p1069
(lp1070
F-3.421768401206924
aF-3.1504494094608804
asS'mcculloch'
p1071
(lp1072
F-3.421768401206924
aF-3.1504494094608804
asS'timeless'
p1073
(lp1074
F-3.421768401206924
aF-3.1504494094608804
asS'idiotic'
p1075
(lp1076
F-3.1207384055429426
aF-3.4514794051248616
asS'monsters'
p1077
(lp1078
F-3.1207384055429426
aF-3.4514794051248616
asS'greene'
p1079
(lp1080
F-3.421768401206924
aF-3.1504494094608804
asS'jokes'
p1081
(lp1082
F-2.9446471464872612
aF-3.4514794051248616
asS'bad'
p1083
(lp1084
F-1.9593704033079677
aF-3.4514794051248616
asS'stupid'
p1085
(lp1086
F-2.8197084098789613
aF-3.4514794051248616
asS'bestknown'
p1087
(lp1088
F-3.421768401206924
aF-3.1504494094608804
asS'raunchy'
p1089
(lp1090
F-3.421768401206924
aF-3.1504494094608804
asS'wannabe'
p1091
(lp1092
F-3.1207384055429426
aF-3.4514794051248616
asS'forster'
p1093
(lp1094
F-3.421768401206924
aF-3.1504494094608804
asS'gibson'
p1095
(lp1096
F-3.421768401206924
aF-3.1504494094608804
asS'vision'
p1097
(lp1098
F-3.421768401206924
aF-3.1504494094608804
asS'guessing'
p1099
(lp1100
F-3.421768401206924
aF-2.974358150405199
asS'mess'
p1101
(lp1102
F-2.8197084098789613
aF-3.4514794051248616
asS'disaster'
p1103
(lp1104
F-2.722798396870905
aF-3.4514794051248616
asS'fascinating'
p1105
(lp1106
F-3.421768401206924
aF-2.548389418132918
asS'seas'
p1107
(lp1108
F-3.421768401206924
aF-3.1504494094608804
asS'puddle'
p1109
(lp1110
F-3.1207384055429426
aF-3.4514794051248616
asS'potent'
p1111
(lp1112
F-3.421768401206924
aF-3.1504494094608804
asS'sex'
p1113
(lp1114
F-3.1207384055429426
aF-3.4514794051248616
asS'college'
p1115
(lp1116
F-3.421768401206924
aF-3.4514794051248616
asS'simultaneously'
p1117
(lp1118
F-3.421768401206924
aF-2.974358150405199
asS'luminous'
p1119
(lp1120
F-3.421768401206924
aF-3.1504494094608804
asS'commanderinchief'
p1121
(lp1122
F-3.421768401206924
aF-3.1504494094608804
asS'seems'
p1123
(lp1124
F-3.1207384055429426
aF-3.4514794051248616
asS'squandering'
p1125
(lp1126
F-3.1207384055429426
aF-3.4514794051248616
asS'spirited'
p1127
(lp1128
F-3.421768401206924
aF-3.1504494094608804
asS'fails'
p1129
(lp1130
F-3.1207384055429426
aF-3.4514794051248616
asS'still'
p1131
(lp1132
F-3.1207384055429426
aF-2.849419413796899
asS'ofasequel'
p1133
(lp1134
F-3.1207384055429426
aF-3.4514794051248616
asS'pedigree'
p1135
(lp1136
F-3.1207384055429426
aF-3.4514794051248616
asS'unsettling'
p1137
(lp1138
F-3.421768401206924
aF-3.4514794051248616
asS'pictures'
p1139
(lp1140
F-3.421768401206924
aF-3.4514794051248616
asS'away'
p1141
(lp1142
F-3.421768401206924
aF-3.1504494094608804
asS'builds'
p1143
(lp1144
F-3.421768401206924
aF-2.974358150405199
asS'pootie'
p1145
(lp1146
F-2.9446471464872612
aF-3.4514794051248616
asS'superb'
p1147
(lp1148
F-3.421768401206924
aF-2.974358150405199
asS'creates'
p1149
(lp1150
F-3.421768401206924
aF-3.1504494094608804
asS'written'
p1151
(lp1152
F-3.1207384055429426
aF-2.974358150405199
asS'grandparents'
p1153
(lp1154
F-3.421768401206924
aF-3.1504494094608804
asS'stories'
p1155
(lp1156
F-3.421768401206924
aF-2.849419413796899
asS'neither'
p1157
(lp1158
F-3.421768401206924
aF-3.1504494094608804
asS'dummies'
p1159
(lp1160
F-3.1207384055429426
aF-3.4514794051248616
asS'across'
p1161
(lp1162
F-3.421768401206924
aF-2.849419413796899
asS'uncanny'
p1163
(lp1164
F-3.421768401206924
aF-3.1504494094608804
asS'lazy'
p1165
(lp1166
F-3.1207384055429426
aF-3.4514794051248616
asS'loose'
p1167
(lp1168
F-2.9446471464872612
aF-3.4514794051248616
asS'ability'
p1169
(lp1170
F-3.421768401206924
aF-2.974358150405199
asS'missing'
p1171
(lp1172
F-3.421768401206924
aF-3.1504494094608804
asS'screen'
p1173
(lp1174
F-3.421768401206924
aF-2.974358150405199
asS'attention'
p1175
(lp1176
F-3.421768401206924
aF-3.1504494094608804
asS'deliver'
p1177
(lp1178
F-3.421768401206924
aF-3.1504494094608804
asS'inextricably'
p1179
(lp1180
F-3.421768401206924
aF-3.1504494094608804
asS'embarrassment'
p1181
(lp1182
F-3.1207384055429426
aF-3.4514794051248616
asS'job'
p1183
(lp1184
F-3.421768401206924
aF-3.1504494094608804
asS'harvard'
p1185
(lp1186
F-2.9446471464872612
aF-3.4514794051248616
asS'here'
p1187
(lp1188
F-2.722798396870905
aF-3.4514794051248616
asS'premise'
p1189
(lp1190
F-3.421768401206924
aF-3.4514794051248616
asS'useless'
p1191
(lp1192
F-3.1207384055429426
aF-3.4514794051248616
asS'lyrical'
p1193
(lp1194
F-3.421768401206924
aF-3.1504494094608804
asS'both'
p1195
(lp1196
F-3.421768401206924
aF-3.1504494094608804
asS'commands'
p1197
(lp1198
F-3.421768401206924
aF-3.1504494094608804
asS'last'
p1199
(lp1200
F-2.722798396870905
aF-3.4514794051248616
asS'many'
p1201
(lp1202
F-3.421768401206924
aF-2.849419413796899
asS'barely'
p1203
(lp1204
F-2.576670361192667
aF-3.4514794051248616
asS'minds'
p1205
(lp1206
F-3.421768401206924
aF-2.849419413796899
asS'foreign'
p1207
(lp1208
F-3.1207384055429426
aF-3.4514794051248616
asS'sensitive'
p1209
(lp1210
F-3.421768401206924
aF-3.1504494094608804
asS's'
p1211
(lp1212
F-1.6155884272230367
aF-1.8494194137968993
asS'disappointment'
p1213
(lp1214
F-3.1207384055429426
aF-3.4514794051248616
asS'logic'
p1215
(lp1216
F-3.1207384055429426
aF-3.4514794051248616
asS'witch'
p1217
(lp1218
F-3.1207384055429426
aF-3.4514794051248616
asS'whole'
p1219
(lp1220
F-3.1207384055429426
aF-3.4514794051248616
asS'finds'
p1221
(lp1222
F-3.421768401206924
aF-3.1504494094608804
asS'otherwise'
p1223
(lp1224
F-3.421768401206924
aF-3.1504494094608804
asS'load'
p1225
(lp1226
F-2.9446471464872612
aF-3.4514794051248616
asS'point'
p1227
(lp1228
F-2.722798396870905
aF-3.4514794051248616
asS'simple'
p1229
(lp1230
F-3.421768401206924
aF-3.1504494094608804
asS'character'
p1231
(lp1232
F-3.1207384055429426
aF-3.4514794051248616
asS'ca'
p1233
(lp1234
F-2.9446471464872612
aF-3.4514794051248616
asS'period'
p1235
(lp1236
F-3.421768401206924
aF-3.1504494094608804
asS'demons'
p1237
(lp1238
F-3.421768401206924
aF-3.1504494094608804
asS'atrociously'
p1239
(lp1240
F-3.1207384055429426
aF-3.4514794051248616
asS'crafted'
p1241
(lp1242
F-3.421768401206924
aF-2.974358150405199
asS'majestic'
p1243
(lp1244
F-3.421768401206924
aF-3.1504494094608804
asS'sees'
p1245
(lp1246
F-3.421768401206924
aF-3.1504494094608804
asS'frenetic'
p1247
(lp1248
F-3.421768401206924
aF-3.1504494094608804
asS'throughout'
p1249
(lp1250
F-3.421768401206924
aF-2.974358150405199
asS'shudder'
p1251
(lp1252
F-3.421768401206924
aF-3.1504494094608804
asS'riled'
p1253
(lp1254
F-3.421768401206924
aF-3.1504494094608804
asS'addition'
p1255
(lp1256
F-3.421768401206924
aF-3.4514794051248616
asS'cinema'
p1257
(lp1258
F-3.1207384055429426
aF-3.4514794051248616
asS'political'
p1259
(lp1260
F-3.421768401206924
aF-2.974358150405199
asS'three'
p1261
(lp1262
F-2.722798396870905
aF-3.1504494094608804
asS'been'
p1263
(lp1264
F-2.722798396870905
aF-3.1504494094608804
asS'whom'
p1265
(lp1266
F-3.1207384055429426
aF-3.4514794051248616
asS'bestforeignfilm'
p1267
(lp1268
F-3.421768401206924
aF-3.1504494094608804
asS'offers'
p1269
(lp1270
F-3.421768401206924
aF-2.752509400788843
asS'stanzas'
p1271
(lp1272
F-3.421768401206924
aF-3.1504494094608804
asS'interest'
p1273
(lp1274
F-3.1207384055429426
aF-3.1504494094608804
asS'expected'
p1275
(lp1276
F-3.421768401206924
aF-3.1504494094608804
asS'watchable'
p1277
(lp1278
F-3.421768401206924
aF-3.4514794051248616
asS'feelgood'
p1279
(lp1280
F-3.421768401206924
aF-3.1504494094608804
asS'warmth'
p1281
(lp1282
F-3.421768401206924
aF-3.1504494094608804
asS'treatment'
p1283
(lp1284
F-3.421768401206924
aF-3.1504494094608804
asS'followup'
p1285
(lp1286
F-3.421768401206924
aF-3.1504494094608804
asS'dialogue'
p1287
(lp1288
F-2.8197084098789613
aF-2.974358150405199
asS'mind'
p1289
(lp1290
F-3.1207384055429426
aF-3.4514794051248616
asS'gorgeously'
p1291
(lp1292
F-3.421768401206924
aF-3.1504494094608804
asS'spectrum'
p1293
(lp1294
F-3.421768401206924
aF-3.1504494094608804
asS'kids'
p1295
(lp1296
F-3.1207384055429426
aF-3.4514794051248616
asS'lives'
p1297
(lp1298
F-3.421768401206924
aF-3.4514794051248616
asS'imax'
p1299
(lp1300
F-3.421768401206924
aF-3.1504494094608804
asS'standup'
p1301
(lp1302
F-3.421768401206924
aF-3.4514794051248616
asS'talent'
p1303
(lp1304
F-3.421768401206924
aF-3.1504494094608804
asS'glides'
p1305
(lp1306
F-3.421768401206924
aF-3.1504494094608804
asS'spirit'
p1307
(lp1308
F-3.421768401206924
aF-3.1504494094608804
asS'those'
p1309
(lp1310
F-3.1207384055429426
aF-2.752509400788843
asS'terrible'
p1311
(lp1312
F-2.8197084098789613
aF-3.4514794051248616
asS'crumb'
p1313
(lp1314
F-3.421768401206924
aF-3.1504494094608804
asS'vapid'
p1315
(lp1316
F-2.9446471464872612
aF-3.4514794051248616
asS'spiderman'
p1317
(lp1318
F-3.421768401206924
aF-3.1504494094608804
asS'might'
p1319
(lp1320
F-2.722798396870905
aF-2.849419413796899
asS'brash'
p1321
(lp1322
F-3.421768401206924
aF-3.4514794051248616
asS'wellexecuted'
p1323
(lp1324
F-3.421768401206924
aF-3.1504494094608804
asS'admire'
p1325
(lp1326
F-3.1207384055429426
aF-3.4514794051248616
asS'ugly'
p1327
(lp1328
F-3.1207384055429426
aF-3.4514794051248616
asS'while'
p1329
(lp1330
F-3.421768401206924
aF-3.1504494094608804
asS'applies'
p1331
(lp1332
F-3.421768401206924
aF-3.1504494094608804
asS'fun'
p1333
(lp1334
F-2.9446471464872612
aF-2.6733281547412178
asS'guide'
p1335
(lp1336
F-2.9446471464872612
aF-3.4514794051248616
asS'chilling'
p1337
(lp1338
F-3.421768401206924
aF-3.1504494094608804
asS'pack'
p1339
(lp1340
F-3.421768401206924
aF-3.1504494094608804
asS'paperthin'
p1341
(lp1342
F-3.1207384055429426
aF-3.4514794051248616
asS'costly'
p1343
(lp1344
F-3.1207384055429426
aF-3.4514794051248616
asS've'
p1345
(lp1346
F-2.9446471464872612
aF-3.4514794051248616
asS'almost'
p1347
(lp1348
F-2.9446471464872612
aF-2.974358150405199
asS'sincere'
p1349
(lp1350
F-3.421768401206924
aF-3.1504494094608804
asS'insanely'
p1351
(lp1352
F-3.421768401206924
aF-2.974358150405199
asS'surprisingly'
p1353
(lp1354
F-3.421768401206924
aF-2.6733281547412178
asS'surface'
p1355
(lp1356
F-3.1207384055429426
aF-3.4514794051248616
asS'ii'
p1357
(lp1358
F-2.9446471464872612
aF-3.4514794051248616
asS'need'
p1359
(lp1360
F-3.1207384055429426
aF-3.4514794051248616
asS'someone'
p1361
(lp1362
F-3.421768401206924
aF-3.4514794051248616
asS'audiences'
p1363
(lp1364
F-2.9446471464872612
aF-3.1504494094608804
asS'wellacted'
p1365
(lp1366
F-3.421768401206924
aF-3.1504494094608804
asS'exterior'
p1367
(lp1368
F-3.421768401206924
aF-3.1504494094608804
asS'beautifully'
p1369
(lp1370
F-3.421768401206924
aF-2.849419413796899
asS'engages'
p1371
(lp1372
F-3.421768401206924
aF-3.1504494094608804
asS'timing'
p1373
(lp1374
F-3.421768401206924
aF-3.1504494094608804
asS'worry'
p1375
(lp1376
F-3.421768401206924
aF-3.1504494094608804
asS'chase'
p1377
(lp1378
F-3.1207384055429426
aF-3.4514794051248616
asS'funny'
p1379
(lp1380
F-2.722798396870905
aF-2.3053513694466234
asS'par'
p1381
(lp1382
F-3.421768401206924
aF-3.1504494094608804
asS'let'
p1383
(lp1384
F-2.9446471464872612
aF-3.4514794051248616
asS'breathtakingly'
p1385
(lp1386
F-3.421768401206924
aF-3.1504494094608804
asS'charles'
p1387
(lp1388
F-3.421768401206924
aF-3.1504494094608804
asS'things'
p1389
(lp1390
F-2.8197084098789613
aF-3.4514794051248616
asS'make'
p1391
(lp1392
F-2.51867841421498
aF-2.849419413796899
asS'poetry'
p1393
(lp1394
F-3.421768401206924
aF-3.1504494094608804
asS'satisfying'
p1395
(lp1396
F-3.1207384055429426
aF-2.6733281547412178
asS'same'
p1397
(lp1398
F-2.8197084098789613
aF-3.4514794051248616
asS'strange'
p1399
(lp1400
F-3.421768401206924
aF-3.1504494094608804
asS'grand'
p1401
(lp1402
F-2.9446471464872612
aF-3.4514794051248616
asS'several'
p1403
(lp1404
F-3.1207384055429426
aF-3.4514794051248616
asS'privileged'
p1405
(lp1406
F-3.421768401206924
aF-3.1504494094608804
asS'grandeur'
p1407
(lp1408
F-3.421768401206924
aF-2.974358150405199
asS'visually'
p1409
(lp1410
F-2.9446471464872612
aF-3.4514794051248616
asS'persona'
p1411
(lp1412
F-3.421768401206924
aF-3.1504494094608804
asS'emotionally'
p1413
(lp1414
F-3.421768401206924
aF-3.1504494094608804
asS'deft'
p1415
(lp1416
F-3.421768401206924
aF-2.974358150405199
asS'blair'
p1417
(lp1418
F-3.1207384055429426
aF-3.4514794051248616
asS'chaiken'
p1419
(lp1420
F-3.421768401206924
aF-3.1504494094608804
asS'rain'
p1421
(lp1422
F-3.1207384055429426
aF-3.4514794051248616
asS'adventure'
p1423
(lp1424
F-3.421768401206924
aF-3.1504494094608804
asS'director'
p1425
(lp1426
F-2.64361715082328
aF-2.6733281547412178
asS'devoid'
p1427
(lp1428
F-2.9446471464872612
aF-3.4514794051248616
asS'moving'
p1429
(lp1430
F-3.421768401206924
aF-2.548389418132918
asS'never'
p1431
(lp1432
F-2.51867841421498
aF-2.6063813651106047
asS'fierce'
p1433
(lp1434
F-3.421768401206924
aF-3.1504494094608804
asS'frequently'
p1435
(lp1436
F-3.421768401206924
aF-3.1504494094608804
asS'impeccable'
p1437
(lp1438
F-3.421768401206924
aF-3.1504494094608804
asS'embarrassingly'
p1439
(lp1440
F-3.1207384055429426
aF-3.4514794051248616
asS'keep'
p1441
(lp1442
F-3.421768401206924
aF-3.1504494094608804
asS'prescribed'
p1443
(lp1444
F-2.9446471464872612
aF-3.4514794051248616
asS'characters'
p1445
(lp1446
F-2.576670361192667
aF-2.974358150405199
asS'off'
p1447
(lp1448
F-2.722798396870905
aF-3.4514794051248616
asS'mention'
p1449
(lp1450
F-3.421768401206924
aF-3.4514794051248616
asS'no'
p1451
(lp1452
F-2.51867841421498
aF-3.4514794051248616
asS'itself'
p1453
(lp1454
F-2.9446471464872612
aF-3.1504494094608804
asS'game'
p1455
(lp1456
F-3.421768401206924
aF-2.974358150405199
asS'theology'
p1457
(lp1458
F-3.421768401206924
aF-3.1504494094608804
asS'without'
p1459
(lp1460
F-2.722798396870905
aF-2.6063813651106047
asS'boring'
p1461
(lp1462
F-2.722798396870905
aF-3.4514794051248616
asS'convenient'
p1463
(lp1464
F-3.1207384055429426
aF-3.4514794051248616
asS'very'
p1465
(lp1466
F-2.467525891767599
aF-2.6733281547412178
asS'hearts'
p1467
(lp1468
F-3.421768401206924
aF-2.849419413796899
asS'lilo'
p1469
(lp1470
F-3.421768401206924
aF-3.1504494094608804
asS'left'
p1471
(lp1472
F-2.8197084098789613
aF-3.4514794051248616
asS'summer'
p1473
(lp1474
F-3.1207384055429426
aF-2.752509400788843
asS'endeavour'
p1475
(lp1476
F-3.421768401206924
aF-3.1504494094608804
asS'less'
p1477
(lp1478
F-2.722798396870905
aF-3.4514794051248616
asS'being'
p1479
(lp1480
F-2.64361715082328
aF-2.849419413796899
asS'gods'
p1481
(lp1482
F-3.421768401206924
aF-3.1504494094608804
asS'neoaugustinian'
p1483
(lp1484
F-3.421768401206924
aF-3.1504494094608804
asS'ludicrous'
p1485
(lp1486
F-3.1207384055429426
aF-3.4514794051248616
asS'profoundly'
p1487
(lp1488
F-3.421768401206924
aF-2.974358150405199
asS'halfbaked'
p1489
(lp1490
F-3.1207384055429426
aF-3.4514794051248616
asS'multiplex'
p1491
(lp1492
F-3.421768401206924
aF-3.1504494094608804
asS'human'
p1493
(lp1494
F-3.421768401206924
aF-3.1504494094608804
asS'world'
p1495
(lp1496
F-3.421768401206924
aF-2.849419413796899
asS'touch'
p1497
(lp1498
F-3.421768401206924
aF-3.4514794051248616
asS'where'
p1499
(lp1500
F-2.9446471464872612
aF-3.4514794051248616
asS'punchlines'
p1501
(lp1502
F-2.9446471464872612
aF-3.4514794051248616
asS'yet'
p1503
(lp1504
F-3.1207384055429426
aF-3.4514794051248616
asS'superficial'
p1505
(lp1506
F-2.9446471464872612
aF-3.4514794051248616
asS'cut'
p1507
(lp1508
F-3.1207384055429426
aF-3.4514794051248616
asS'clueless'
p1509
(lp1510
F-3.1207384055429426
aF-3.4514794051248616
asS'family'
p1511
(lp1512
F-3.421768401206924
aF-2.497236895685537
asS'reallife'
p1513
(lp1514
F-3.1207384055429426
aF-3.4514794051248616
asS'shrewd'
p1515
(lp1516
F-3.421768401206924
aF-3.4514794051248616
asS'discord'
p1517
(lp1518
F-3.421768401206924
aF-3.1504494094608804
asS'had'
p1519
(lp1520
F-2.9446471464872612
aF-2.6733281547412178
asS'likeable'
p1521
(lp1522
F-3.421768401206924
aF-3.1504494094608804
asS'adventurous'
p1523
(lp1524
F-3.421768401206924
aF-3.1504494094608804
asS'add'
p1525
(lp1526
F-3.421768401206924
aF-2.974358150405199
asS'theater'
p1527
(lp1528
F-3.1207384055429426
aF-3.4514794051248616
asS'thoughtprovoking'
p1529
(lp1530
F-3.421768401206924
aF-3.1504494094608804
asS'attractive'
p1531
(lp1532
F-3.421768401206924
aF-3.4514794051248616
asS'sweet'
p1533
(lp1534
F-3.421768401206924
aF-2.849419413796899
asS'pitiful'
p1535
(lp1536
F-3.1207384055429426
aF-3.4514794051248616
asS'has'
p1537
(lp1538
F-2.51867841421498
aF-2.2753881460691803
asS'humanity'
p1539
(lp1540
F-3.421768401206924
aF-3.1504494094608804
asS'surprised'
p1541
(lp1542
F-3.421768401206924
aF-3.1504494094608804
asS'amusing'
p1543
(lp1544
F-3.421768401206924
aF-3.1504494094608804
asS'real'
p1545
(lp1546
F-3.1207384055429426
aF-2.974358150405199
asS'movie'
p1547
(lp1548
F-1.7496705432712063
aF-2.1090567243026555
asS'aspects'
p1549
(lp1550
F-3.421768401206924
aF-3.1504494094608804
asS'captivating'
p1551
(lp1552
F-3.421768401206924
aF-2.974358150405199
asS'spectacular'
p1553
(lp1554
F-3.421768401206924
aF-3.1504494094608804
asS'ops'
p1555
(lp1556
F-3.1207384055429426
aF-3.4514794051248616
asS'read'
p1557
(lp1558
F-3.421768401206924
aF-3.1504494094608804
asS'big'
p1559
(lp1560
F-3.421768401206924
aF-3.1504494094608804
asS'else'
p1561
(lp1562
F-3.1207384055429426
aF-3.4514794051248616
asS'possible'
p1563
(lp1564
F-3.1207384055429426
aF-3.4514794051248616
asS'auspicious'
p1565
(lp1566
F-3.421768401206924
aF-3.1504494094608804
asS'cultural'
p1567
(lp1568
F-3.421768401206924
aF-3.4514794051248616
asS'formulaic'
p1569
(lp1570
F-3.1207384055429426
aF-3.4514794051248616
asS'know'
p1571
(lp1572
F-2.9446471464872612
aF-3.4514794051248616
asS'background'
p1573
(lp1574
F-3.421768401206924
aF-3.1504494094608804
asS'damage'
p1575
(lp1576
F-3.1207384055429426
aF-3.4514794051248616
asS'dreams'
p1577
(lp1578
F-3.421768401206924
aF-3.1504494094608804
asS'apart'
p1579
(lp1580
F-3.1207384055429426
aF-3.4514794051248616
asS'exercise'
p1581
(lp1582
F-2.9446471464872612
aF-3.1504494094608804
asS'stuff'
p1583
(lp1584
F-3.421768401206924
aF-3.1504494094608804
asS'necessary'
p1585
(lp1586
F-3.1207384055429426
aF-3.4514794051248616
asS'like'
p1587
(lp1588
F-2.0995491064730043
aF-2.497236895685537
asS'obvious'
p1589
(lp1590
F-2.8197084098789613
aF-3.4514794051248616
asS'lacking'
p1591
(lp1592
F-3.1207384055429426
aF-3.4514794051248616
asS'loses'
p1593
(lp1594
F-3.1207384055429426
aF-3.4514794051248616
asS'raffish'
p1595
(lp1596
F-3.421768401206924
aF-3.1504494094608804
asS'recycled'
p1597
(lp1598
F-3.1207384055429426
aF-3.4514794051248616
asS'nose'
p1599
(lp1600
F-3.1207384055429426
aF-3.4514794051248616
asS'night'
p1601
(lp1602
F-3.421768401206924
aF-3.1504494094608804
asS'chick'
p1603
(lp1604
F-3.421768401206924
aF-3.1504494094608804
asS'punny'
p1605
(lp1606
F-3.421768401206924
aF-3.1504494094608804
asS'unabashedly'
p1607
(lp1608
F-3.421768401206924
aF-3.1504494094608804
asS'right'
p1609
(lp1610
F-2.9446471464872612
aF-2.974358150405199
asS'old'
p1611
(lp1612
F-2.722798396870905
aF-3.4514794051248616
asS'laugh'
p1613
(lp1614
F-3.1207384055429426
aF-3.4514794051248616
asS'obsessions'
p1615
(lp1616
F-3.421768401206924
aF-3.1504494094608804
asS'people'
p1617
(lp1618
F-2.576670361192667
aF-2.974358150405199
asS'absolutely'
p1619
(lp1620
F-3.421768401206924
aF-3.4514794051248616
asS'footage'
p1621
(lp1622
F-3.421768401206924
aF-3.1504494094608804
asS'creation'
p1623
(lp1624
F-3.421768401206924
aF-3.1504494094608804
asS'play'
p1625
(lp1626
F-3.1207384055429426
aF-3.4514794051248616
asS'meara'
p1627
(lp1628
F-3.421768401206924
aF-3.1504494094608804
asS'recovery'
p1629
(lp1630
F-3.421768401206924
aF-3.1504494094608804
asS'images'
p1631
(lp1632
F-3.421768401206924
aF-3.1504494094608804
asS'bore'
p1633
(lp1634
F-3.1207384055429426
aF-3.4514794051248616
asS'oddly'
p1635
(lp1636
F-3.421768401206924
aF-3.1504494094608804
asS'intellect'
p1637
(lp1638
F-3.421768401206924
aF-3.1504494094608804
asS'slice'
p1639
(lp1640
F-3.421768401206924
aF-3.1504494094608804
asS'unfunny'
p1641
(lp1642
F-2.64361715082328
aF-3.4514794051248616
asS'richer'
p1643
(lp1644
F-3.421768401206924
aF-3.1504494094608804
asS'riveting'
p1645
(lp1646
F-3.421768401206924
aF-2.974358150405199
asS'phenomenal'
p1647
(lp1648
F-3.421768401206924
aF-3.1504494094608804
asS'audience'
p1649
(lp1650
F-2.9446471464872612
aF-2.849419413796899
asS'best'
p1651
(lp1652
F-3.421768401206924
aF-2.6063813651106047
asS'cast'
p1653
(lp1654
F-3.1207384055429426
aF-2.752509400788843
asS'witty'
p1655
(lp1656
F-3.421768401206924
aF-2.849419413796899
asS'snappy'
p1657
(lp1658
F-3.421768401206924
aF-3.1504494094608804
asS'rewarding'
p1659
(lp1660
F-3.421768401206924
aF-3.1504494094608804
asS'behave'
p1661
(lp1662
F-3.1207384055429426
aF-3.4514794051248616
asS'ethos'
p1663
(lp1664
F-3.421768401206924
aF-3.1504494094608804
asS'epic'
p1665
(lp1666
F-3.421768401206924
aF-3.1504494094608804
asS'resolutely'
p1667
(lp1668
F-2.9446471464872612
aF-3.4514794051248616
asS'core'
p1669
(lp1670
F-2.8197084098789613
aF-3.4514794051248616
asS'specifically'
p1671
(lp1672
F-3.421768401206924
aF-3.1504494094608804
asS'noise'
p1673
(lp1674
F-3.1207384055429426
aF-3.4514794051248616
asS'run'
p1675
(lp1676
F-3.1207384055429426
aF-3.4514794051248616
asS'idealistic'
p1677
(lp1678
F-3.421768401206924
aF-3.1504494094608804
asS'seconds'
p1679
(lp1680
F-2.9446471464872612
aF-3.4514794051248616
asS'rock'
p1681
(lp1682
F-2.9446471464872612
aF-3.4514794051248616
asS'credits'
p1683
(lp1684
F-3.1207384055429426
aF-2.974358150405199
asS'step'
p1685
(lp1686
F-3.1207384055429426
aF-3.4514794051248616
asS'cinematic'
p1687
(lp1688
F-3.1207384055429426
aF-2.974358150405199
asS'innocence'
p1689
(lp1690
F-3.421768401206924
aF-3.1504494094608804
asS'losing'
p1691
(lp1692
F-2.9446471464872612
aF-3.1504494094608804
asS'memorable'
p1693
(lp1694
F-3.421768401206924
aF-2.752509400788843
asS'willies'
p1695
(lp1696
F-3.421768401206924
aF-2.849419413796899
asS'intense'
p1697
(lp1698
F-3.421768401206924
aF-3.1504494094608804
asS'between'
p1699
(lp1700
F-2.8197084098789613
aF-3.4514794051248616
asS'takes'
p1701
(lp1702
F-3.1207384055429426
aF-3.4514794051248616
asS'stone'
p1703
(lp1704
F-3.421768401206924
aF-3.1504494094608804
asS'goods'
p1705
(lp1706
F-3.421768401206924
aF-2.974358150405199
asS'campfire'
p1707
(lp1708
F-3.421768401206924
aF-2.849419413796899
asS'anything'
p1709
(lp1710
F-2.64361715082328
aF-3.4514794051248616
asS'getting'
p1711
(lp1712
F-3.1207384055429426
aF-3.4514794051248616
asS'surrender'
p1713
(lp1714
F-2.9446471464872612
aF-3.4514794051248616
asS'hiphop'
p1715
(lp1716
F-3.1207384055429426
aF-3.4514794051248616
asS'nonexistent'
p1717
(lp1718
F-3.1207384055429426
aF-3.4514794051248616
asS'celluloid'
p1719
(lp1720
F-2.9446471464872612
aF-3.4514794051248616
asS'rhythms'
p1721
(lp1722
F-2.9446471464872612
aF-3.4514794051248616
asS'stand'
p1723
(lp1724
F-3.1207384055429426
aF-3.4514794051248616
asS'act'
p1725
(lp1726
F-3.421768401206924
aF-3.4514794051248616
asS'documentary'
p1727
(lp1728
F-3.421768401206924
aF-2.6063813651106047
asS'book'
p1729
(lp1730
F-3.421768401206924
aF-3.1504494094608804
asS'clams'
p1731
(lp1732
F-2.9446471464872612
aF-3.4514794051248616
asS'seeing'
p1733
(lp1734
F-3.421768401206924
aF-2.752509400788843
asS'own'
p1735
(lp1736
F-2.722798396870905
aF-3.4514794051248616
asS'burning'
p1737
(lp1738
F-3.421768401206924
aF-3.1504494094608804
asS'creativity'
p1739
(lp1740
F-3.421768401206924
aF-3.1504494094608804
asS'around'
p1741
(lp1742
F-2.8197084098789613
aF-2.497236895685537
asS'within'
p1743
(lp1744
F-3.421768401206924
aF-3.1504494094608804
asS'intellectual'
p1745
(lp1746
F-3.1207384055429426
aF-3.4514794051248616
asS'down'
p1747
(lp1748
F-2.8197084098789613
aF-2.849419413796899
asS'finely'
p1749
(lp1750
F-3.421768401206924
aF-3.1504494094608804
asS'lively'
p1751
(lp1752
F-3.421768401206924
aF-3.1504494094608804
asS'female'
p1753
(lp1754
F-3.421768401206924
aF-2.752509400788843
asS'cultivated'
p1755
(lp1756
F-3.421768401206924
aF-3.1504494094608804
asS'lovely'
p1757
(lp1758
F-3.421768401206924
aF-3.1504494094608804
asS'shoots'
p1759
(lp1760
F-3.421768401206924
aF-3.1504494094608804
asS'pointless'
p1761
(lp1762
F-2.9446471464872612
aF-3.4514794051248616
asS'embrace'
p1763
(lp1764
F-3.421768401206924
aF-3.1504494094608804
asS'often'
p1765
(lp1766
F-3.1207384055429426
aF-2.974358150405199
asS'infidelity'
p1767
(lp1768
F-3.421768401206924
aF-3.1504494094608804
asS'art'
p1769
(lp1770
F-3.421768401206924
aF-3.4514794051248616
asS'deception'
p1771
(lp1772
F-3.421768401206924
aF-3.1504494094608804
asS'beneath'
p1773
(lp1774
F-3.421768401206924
aF-3.1504494094608804
asS'rushed'
p1775
(lp1776
F-3.1207384055429426
aF-3.4514794051248616
asS'amazingly'
p1777
(lp1778
F-3.421768401206924
aF-3.1504494094608804
asS'charisma'
p1779
(lp1780
F-3.421768401206924
aF-3.1504494094608804
asS'long'
p1781
(lp1782
F-2.576670361192667
aF-3.1504494094608804
asS'sides'
p1783
(lp1784
F-3.421768401206924
aF-3.1504494094608804
asS'indoor'
p1785
(lp1786
F-3.421768401206924
aF-3.1504494094608804
asS'stuck'
p1787
(lp1788
F-3.421768401206924
aF-3.1504494094608804
asS'much'
p1789
(lp1790
F-3.1207384055429426
aF-2.4514794051248616
asS'achievement'
p1791
(lp1792
F-3.421768401206924
aF-3.1504494094608804
asS'lot'
p1793
(lp1794
F-2.9446471464872612
aF-3.4514794051248616
asS'biggest'
p1795
(lp1796
F-2.9446471464872612
aF-3.4514794051248616
asS'music'
p1797
(lp1798
F-3.421768401206924
aF-2.752509400788843
asS'exceptional'
p1799
(lp1800
F-3.421768401206924
aF-2.849419413796899
asS'bored'
p1801
(lp1802
F-3.421768401206924
aF-3.1504494094608804
asS'happy'
p1803
(lp1804
F-3.421768401206924
aF-3.1504494094608804
asS'head'
p1805
(lp1806
F-2.8197084098789613
aF-3.4514794051248616
asS'himself'
p1807
(lp1808
F-3.421768401206924
aF-3.1504494094608804
asS'complete'
p1809
(lp1810
F-2.8197084098789613
aF-3.4514794051248616
asS'enough'
p1811
(lp1812
F-2.64361715082328
aF-2.849419413796899
asS'fundamentals'
p1813
(lp1814
F-3.421768401206924
aF-3.1504494094608804
asS'directing'
p1815
(lp1816
F-3.421768401206924
aF-3.1504494094608804
asS'editing'
p1817
(lp1818
F-2.8197084098789613
aF-3.4514794051248616
asS'gorgeous'
p1819
(lp1820
F-3.421768401206924
aF-3.1504494094608804
asS'scouse'
p1821
(lp1822
F-3.1207384055429426
aF-3.4514794051248616
asS'failure'
p1823
(lp1824
F-2.8197084098789613
aF-3.4514794051248616
asS'talents'
p1825
(lp1826
F-2.9446471464872612
aF-3.4514794051248616
asS'manipulative'
p1827
(lp1828
F-3.1207384055429426
aF-3.4514794051248616
asS'hopes'
p1829
(lp1830
F-3.1207384055429426
aF-3.4514794051248616
asS'coldest'
p1831
(lp1832
F-3.421768401206924
aF-3.1504494094608804
asS'line'
p1833
(lp1834
F-3.421768401206924
aF-3.1504494094608804
asS'amateurish'
p1835
(lp1836
F-2.9446471464872612
aF-3.4514794051248616
asS'dull'
p1837
(lp1838
F-3.1207384055429426
aF-3.4514794051248616
asS'decades'
p1839
(lp1840
F-3.421768401206924
aF-3.1504494094608804
asS'aweinspiring'
p1841
(lp1842
F-3.421768401206924
aF-2.974358150405199
asS'territory'
p1843
(lp1844
F-3.421768401206924
aF-3.1504494094608804
asS'wretchedly'
p1845
(lp1846
F-3.1207384055429426
aF-3.4514794051248616
asS'heartwarming'
p1847
(lp1848
F-3.421768401206924
aF-3.1504494094608804
asS'inane'
p1849
(lp1850
F-3.1207384055429426
aF-3.4514794051248616
asS'until'
p1851
(lp1852
F-3.421768401206924
aF-3.1504494094608804
asS'exploration'
p1853
(lp1854
F-3.421768401206924
aF-3.1504494094608804
asS'charmer'
p1855
(lp1856
F-3.421768401206924
aF-3.1504494094608804
asS'emotional'
p1857
(lp1858
F-3.1207384055429426
aF-2.6733281547412178
asS'problem'
p1859
(lp1860
F-3.1207384055429426
aF-3.4514794051248616
asS'piece'
p1861
(lp1862
F-3.421768401206924
aF-3.1504494094608804
asS'similar'
p1863
(lp1864
F-3.421768401206924
aF-3.1504494094608804
asS'clear'
p1865
(lp1866
F-3.1207384055429426
aF-3.4514794051248616
asS'wants'
p1867
(lp1868
F-2.9446471464872612
aF-3.4514794051248616
asS'penetrating'
p1869
(lp1870
F-3.421768401206924
aF-3.1504494094608804
asS'sometimes'
p1871
(lp1872
F-3.421768401206924
aF-2.849419413796899
asS'money'
p1873
(lp1874
F-3.1207384055429426
aF-3.4514794051248616
asS'adults'
p1875
(lp1876
F-3.1207384055429426
aF-3.4514794051248616
asS'countercultural'
p1877
(lp1878
F-3.421768401206924
aF-3.1504494094608804
asS'taste'
p1879
(lp1880
F-3.421768401206924
aF-3.1504494094608804
asS'minutes'
p1881
(lp1882
F-2.2756403655286856
aF-3.1504494094608804
asS'accents'
p1883
(lp1884
F-2.9446471464872612
aF-3.4514794051248616
asS'mike'
p1885
(lp1886
F-3.421768401206924
aF-3.1504494094608804
asS'covers'
p1887
(lp1888
F-3.421768401206924
aF-3.1504494094608804
asS'imagination'
p1889
(lp1890
F-2.9446471464872612
aF-3.1504494094608804
asS'proves'
p1891
(lp1892
F-3.421768401206924
aF-2.849419413796899
asS'walked'
p1893
(lp1894
F-2.9446471464872612
aF-3.4514794051248616
asS'tang'
p1895
(lp1896
F-2.9446471464872612
aF-3.4514794051248616
asS'believable'
p1897
(lp1898
F-3.421768401206924
aF-3.1504494094608804
asS'evocative'
p1899
(lp1900
F-3.421768401206924
aF-3.1504494094608804
asS'tremble'
p1901
(lp1902
F-3.421768401206924
aF-3.1504494094608804
asS'liking'
p1903
(lp1904
F-3.421768401206924
aF-3.1504494094608804
asS'film'
p1905
(lp1906
F-2.1207384055429426
aF-1.9463294268049556
asS'constructed'
p1907
(lp1908
F-3.421768401206924
aF-3.1504494094608804
asS'tedious'
p1909
(lp1910
F-2.9446471464872612
aF-3.4514794051248616
asS'again'
p1911
(lp1912
F-3.1207384055429426
aF-3.4514794051248616
asS'spell'
p1913
(lp1914
F-3.421768401206924
aF-3.1504494094608804
asS'faithful'
p1915
(lp1916
F-3.421768401206924
aF-3.1504494094608804
asS'eerie'
p1917
(lp1918
F-3.421768401206924
aF-2.974358150405199
asS'meaningless'
p1919
(lp1920
F-2.9446471464872612
aF-3.4514794051248616
asS'pat'
p1921
(lp1922
F-3.421768401206924
aF-3.1504494094608804
asS'offensive'
p1923
(lp1924
F-3.1207384055429426
aF-3.4514794051248616
asS'detail'
p1925
(lp1926
F-3.421768401206924
aF-2.849419413796899
asS'handed'
p1927
(lp1928
F-3.421768401206924
aF-3.1504494094608804
asS'ourselves'
p1929
(lp1930
F-3.421768401206924
aF-3.1504494094608804
asS'cinematography'
p1931
(lp1932
F-3.421768401206924
aF-3.4514794051248616
asS'comedic'
p1933
(lp1934
F-3.1207384055429426
aF-3.1504494094608804
asS'actors'
p1935
(lp1936
F-3.421768401206924
aF-2.752509400788843
asS'becomes'
p1937
(lp1938
F-3.1207384055429426
aF-3.4514794051248616
asS'test'
p1939
(lp1940
F-2.9446471464872612
aF-3.4514794051248616
asS'incredibly'
p1941
(lp1942
F-3.421768401206924
aF-2.974358150405199
asS'nt'
p1943
(lp1944
F-2.0238283925348863
aF-2.752509400788843
asS'roll'
p1945
(lp1946
F-3.421768401206924
aF-2.974358150405199
asS'reckless'
p1947
(lp1948
F-3.1207384055429426
aF-3.4514794051248616
asS'poor'
p1949
(lp1950
F-3.1207384055429426
aF-3.4514794051248616
asS'picture'
p1951
(lp1952
F-2.8197084098789613
aF-2.974358150405199
asS'draw'
p1953
(lp1954
F-3.421768401206924
aF-3.1504494094608804
asS'll'
p1955
(lp1956
F-2.722798396870905
aF-3.4514794051248616
asS'energetic'
p1957
(lp1958
F-3.421768401206924
aF-3.1504494094608804
asS'separate'
p1959
(lp1960
F-3.421768401206924
aF-3.1504494094608804
asS'welcome'
p1961
(lp1962
F-3.421768401206924
aF-3.4514794051248616
asS'problems'
p1963
(lp1964
F-2.9446471464872612
aF-3.4514794051248616
asS'important'
p1965
(lp1966
F-3.421768401206924
aF-3.1504494094608804
asS'utterly'
p1967
(lp1968
F-3.1207384055429426
aF-3.4514794051248616
asS'scores'
p1969
(lp1970
F-3.421768401206924
aF-3.1504494094608804
asS'dullest'
p1971
(lp1972
F-3.1207384055429426
aF-3.4514794051248616
asS'mamet'
p1973
(lp1974
F-3.421768401206924
aF-3.1504494094608804
asS'acted'
p1975
(lp1976
F-3.1207384055429426
aF-3.1504494094608804
asS'aragorn'
p1977
(lp1978
F-3.421768401206924
aF-3.1504494094608804
asS'desert'
p1979
(lp1980
F-3.1207384055429426
aF-3.4514794051248616
asS'ago'
p1981
(lp1982
F-3.421768401206924
aF-2.974358150405199
asS'lane'
p1983
(lp1984
F-3.421768401206924
aF-3.1504494094608804
asS'suffers'
p1985
(lp1986
F-3.1207384055429426
aF-3.4514794051248616
asS'actor'
p1987
(lp1988
F-3.1207384055429426
aF-3.4514794051248616
asS'stunt'
p1989
(lp1990
F-3.1207384055429426
aF-3.4514794051248616
asS'examination'
p1991
(lp1992
F-3.421768401206924
aF-3.1504494094608804
asS'ranks'
p1993
(lp1994
F-3.421768401206924
aF-3.1504494094608804
asS'values'
p1995
(lp1996
F-3.1207384055429426
aF-3.4514794051248616
asS'holes'
p1997
(lp1998
F-3.1207384055429426
aF-3.4514794051248616
asS'together'
p1999
(lp2000
F-2.8197084098789613
aF-3.1504494094608804
asS'original'
p2001
(lp2002
F-2.9446471464872612
aF-2.752509400788843
asS'cohesion'
p2003
(lp2004
F-3.1207384055429426
aF-3.4514794051248616
asS'depth'
p2005
(lp2006
F-3.421768401206924
aF-3.1504494094608804
asS'dramatic'
p2007
(lp2008
F-3.421768401206924
aF-2.849419413796899
asS'hugely'
p2009
(lp2010
F-3.421768401206924
aF-2.974358150405199
asS'time'
p2011
(lp2012
F-2.576670361192667
aF-2.974358150405199
asS'serious'
p2013
(lp2014
F-3.1207384055429426
aF-3.1504494094608804
asS'backward'
p2015
(lp2016
F-3.1207384055429426
aF-3.4514794051248616
asS'inc'
p2017
(lp2018
F-3.1207384055429426
aF-3.4514794051248616
asS'having'
p2019
(lp2020
F-3.1207384055429426
aF-3.4514794051248616
asS'paced'
p2021
(lp2022
F-2.9446471464872612
aF-3.4514794051248616
asS'once'
p2023
(lp2024
F-3.421768401206924
aF-3.1504494094608804
as.