(dp0
S'breadth'
p1
(lp2
F-3.006180697638505
aF-3.4407517004791854
asS'concept'
p3
(lp4
F-3.483301952358167
aF-2.838691709151223
asS'forget'
p5
(lp6
F-3.006180697638505
aF-3.4407517004791854
asS'remarkable'
p7
(lp8
F-2.8812419610302045
aF-3.4407517004791854
asS'skip'
p9
(lp10
F-3.483301952358167
aF-2.963630445759523
asS'lack'
p11
(lp12
F-3.483301952358167
aF-2.838691709151223
asS'atmosphere'
p13
(lp14
F-2.8812419610302045
aF-3.4407517004791854
asS'suspenseful'
p15
(lp16
F-2.8812419610302045
aF-3.4407517004791854
asS'four'
p17
(lp18
F-3.006180697638505
aF-2.838691709151223
asS'entwined'
p19
(lp20
F-3.006180697638505
aF-3.4407517004791854
asS'manages'
p21
(lp22
F-3.483301952358167
aF-2.838691709151223
asS'battle'
p23
(lp24
F-3.006180697638505
aF-3.4407517004791854
asS'follow'
p25
(lp26
F-3.006180697638505
aF-3.4407517004791854
asS'remarkably'
p27
(lp28
F-2.7843319480221482
aF-3.4407517004791854
asS'children'
p29
(lp30
F-3.483301952358167
aF-2.963630445759523
asS'poorly'
p31
(lp32
F-3.483301952358167
aF-2.4865091910398607
asS'idealism'
p33
(lp34
F-3.006180697638505
aF-3.4407517004791854
asS'certainly'
p35
(lp36
F-2.7843319480221482
aF-3.4407517004791854
asS'everything'
p37
(lp38
F-3.483301952358167
aF-2.963630445759523
asS'acting'
p39
(lp40
F-2.7843319480221482
aF-2.4865091910398607
asS'created'
p41
(lp42
F-3.006180697638505
aF-3.4407517004791854
asS'originality'
p43
(lp44
F-3.006180697638505
aF-3.4407517004791854
asS'amaze'
p45
(lp46
F-3.006180697638505
aF-3.4407517004791854
asS'finally'
p47
(lp48
F-3.006180697638505
aF-3.4407517004791854
asS'does'
p49
(lp50
F-2.6382039123439105
aF-2.2946236648009473
asS'pace'
p51
(lp52
F-3.006180697638505
aF-3.4407517004791854
asS'ridiculousness'
p53
(lp54
F-3.483301952358167
aF-2.963630445759523
asS'pleasing'
p55
(lp56
F-3.006180697638505
aF-3.4407517004791854
asS'worth'
p57
(lp58
F-2.8812419610302045
aF-2.7417816961431667
asS'pay'
p59
(lp60
F-3.483301952358167
aF-2.963630445759523
asS'lrb'
p61
(lp62
F-2.5802119653662237
aF-2.662600450095542
asS'worse'
p63
(lp64
F-3.483301952358167
aF-2.662600450095542
asS'sitting'
p65
(lp66
F-2.7843319480221482
aF-3.4407517004791854
asS'compassion'
p67
(lp68
F-3.006180697638505
aF-3.4407517004791854
asS'sloppy'
p69
(lp70
F-3.483301952358167
aF-2.963630445759523
asS'slickest'
p71
(lp72
F-3.006180697638505
aF-3.4407517004791854
asS'screenwriting'
p73
(lp74
F-3.483301952358167
aF-2.963630445759523
asS'every'
p75
(lp76
F-3.483301952358167
aF-2.7417816961431667
asS'formula'
p77
(lp78
F-3.483301952358167
aF-2.963630445759523
asS'frailty'
p79
(lp80
F-2.7843319480221482
aF-3.4407517004791854
asS'nor'
p81
(lp82
F-3.483301952358167
aF-2.963630445759523
asS'slapdash'
p83
(lp84
F-3.483301952358167
aF-2.838691709151223
asS'minute'
p85
(lp86
F-3.483301952358167
aF-2.662600450095542
asS'margarita'
p87
(lp88
F-3.006180697638505
aF-3.4407517004791854
asS'enjoyable'
p89
(lp90
F-3.006180697638505
aF-3.4407517004791854
asS'school'
p91
(lp92
F-3.006180697638505
aF-2.963630445759523
asS'heaven'
p93
(lp94
F-3.006180697638505
aF-3.4407517004791854
asS'impressive'
p95
(lp96
F-2.8812419610302045
aF-3.4407517004791854
asS'made'
p97
(lp98
F-2.7843319480221482
aF-2.3993590153209605
asS'benevolent'
p99
(lp100
F-3.006180697638505
aF-3.4407517004791854
asS'shock'
p101
(lp102
F-2.8812419610302045
aF-3.4407517004791854
asS'leave'
p103
(lp104
F-3.483301952358167
aF-3.4407517004791854
asS'solid'
p105
(lp106
F-2.8812419610302045
aF-3.4407517004791854
asS'sand'
p107
(lp108
F-3.006180697638505
aF-3.4407517004791854
asS'engrossing'
p109
(lp110
F-2.7843319480221482
aF-3.4407517004791854
asS'science'
p111
(lp112
F-3.483301952358167
aF-2.963630445759523
asS'small'
p113
(lp114
F-3.006180697638505
aF-3.4407517004791854
asS'delightfully'
p115
(lp116
F-3.006180697638505
aF-3.4407517004791854
asS'guy'
p117
(lp118
F-3.483301952358167
aF-2.838691709151223
asS'triumph'
p119
(lp120
F-3.006180697638505
aF-3.4407517004791854
asS'enjoy'
p121
(lp122
F-3.483301952358167
aF-2.963630445759523
asS'upper'
p123
(lp124
F-2.8812419610302045
aF-3.4407517004791854
asS'spiritual'
p125
(lp126
F-3.006180697638505
aF-3.4407517004791854
asS'blade'
p127
(lp128
F-3.483301952358167
aF-2.963630445759523
asS'gripping'
p129
(lp130
F-3.483301952358167
aF-3.4407517004791854
asS'tired'
p131
(lp132
F-3.483301952358167
aF-2.963630445759523
asS'visuals'
p133
(lp134
F-2.8812419610302045
aF-3.4407517004791854
asS'rrb'
p135
(lp136
F-2.5802119653662237
aF-2.662600450095542
asS'whimsical'
p137
(lp138
F-3.006180697638505
aF-3.4407517004791854
asS'arwen'
p139
(lp140
F-3.006180697638505
aF-3.4407517004791854
asS'elegant'
p141
(lp142
F-3.006180697638505
aF-3.4407517004791854
asS'erotic'
p143
(lp144
F-3.483301952358167
aF-2.963630445759523
asS'meditation'
p145
(lp146
F-3.006180697638505
aF-3.4407517004791854
asS'neo'
p147
(lp148
F-3.006180697638505
aF-3.4407517004791854
asS'richer'
p149
(lp150
F-3.006180697638505
aF-3.4407517004791854
asS'cast'
p151
(lp152
F-2.7051507019745236
aF-2.963630445759523
asS'sun'
p153
(lp154
F-3.483301952358167
aF-2.838691709151223
asS'sides'
p155
(lp156
F-3.006180697638505
aF-3.4407517004791854
asS'emotions'
p157
(lp158
F-3.006180697638505
aF-3.4407517004791854
asS'consistently'
p159
(lp160
F-2.7843319480221482
aF-3.4407517004791854
asS'rotten'
p161
(lp162
F-3.483301952358167
aF-2.963630445759523
asS'version'
p163
(lp164
F-3.483301952358167
aF-2.838691709151223
asS'goes'
p165
(lp166
F-3.483301952358167
aF-2.7417816961431667
asS'new'
p167
(lp168
F-2.7843319480221482
aF-2.838691709151223
asS'ever'
p169
(lp170
F-3.483301952358167
aF-2.5956536604649285
asS'disney'
p171
(lp172
F-2.8812419610302045
aF-3.4407517004791854
asS'told'
p173
(lp174
F-3.006180697638505
aF-3.4407517004791854
asS'edited'
p175
(lp176
F-3.006180697638505
aF-3.4407517004791854
asS'full'
p177
(lp178
F-2.7843319480221482
aF-2.7417816961431667
asS'christian'
p179
(lp180
F-3.006180697638505
aF-3.4407517004791854
asS'mel'
p181
(lp182
F-3.006180697638505
aF-3.4407517004791854
asS'men'
p183
(lp184
F-2.7843319480221482
aF-3.4407517004791854
asS'inspiring'
p185
(lp186
F-2.8812419610302045
aF-3.4407517004791854
asS'portrays'
p187
(lp188
F-3.006180697638505
aF-3.4407517004791854
asS'delivering'
p189
(lp190
F-3.006180697638505
aF-3.4407517004791854
asS'hours'
p191
(lp192
F-3.483301952358167
aF-2.838691709151223
asS'portrait'
p193
(lp194
F-2.6382039123439105
aF-3.4407517004791854
asS'entertain'
p195
(lp196
F-3.006180697638505
aF-3.4407517004791854
asS'studio'
p197
(lp198
F-3.483301952358167
aF-2.963630445759523
asS'unrewarding'
p199
(lp200
F-3.483301952358167
aF-2.838691709151223
asS'alone'
p201
(lp202
F-3.483301952358167
aF-2.963630445759523
asS'suckers'
p203
(lp204
F-3.483301952358167
aF-2.963630445759523
asS'along'
p205
(lp206
F-3.483301952358167
aF-2.963630445759523
asS'strong'
p207
(lp208
F-3.006180697638505
aF-3.4407517004791854
asS'irritating'
p209
(lp210
F-3.483301952358167
aF-2.963630445759523
asS'change'
p211
(lp212
F-3.483301952358167
aF-2.963630445759523
asS'extreme'
p213
(lp214
F-3.483301952358167
aF-2.838691709151223
asS'dry'
p215
(lp216
F-3.006180697638505
aF-3.4407517004791854
asS'great'
p217
(lp218
F-2.2791819697022424
aF-3.4407517004791854
asS'substance'
p219
(lp220
F-3.483301952358167
aF-2.963630445759523
asS'standout'
p221
(lp222
F-3.006180697638505
aF-3.4407517004791854
asS'uplifting'
p223
(lp224
F-3.006180697638505
aF-3.4407517004791854
asS'hideously'
p225
(lp226
F-3.006180697638505
aF-3.4407517004791854
asS'brilliant'
p227
(lp228
F-2.5802119653662237
aF-3.4407517004791854
asS'involved'
p229
(lp230
F-3.483301952358167
aF-2.838691709151223
asS'exceptionally'
p231
(lp232
F-3.006180697638505
aF-3.4407517004791854
asS'piercing'
p233
(lp234
F-3.006180697638505
aF-3.4407517004791854
asS'experience'
p235
(lp236
F-2.529059442918842
aF-2.838691709151223
asS'bittersweet'
p237
(lp238
F-2.7843319480221482
aF-3.4407517004791854
asS'women'
p239
(lp240
F-3.006180697638505
aF-3.4407517004791854
asS'pitfalls'
p241
(lp242
F-3.483301952358167
aF-2.838691709151223
asS'within'
p243
(lp244
F-3.006180697638505
aF-3.4407517004791854
asS'action'
p245
(lp246
F-3.483301952358167
aF-2.4865091910398607
asS'deserves'
p247
(lp248
F-3.483301952358167
aF-2.963630445759523
asS'makes'
p249
(lp250
F-2.8812419610302045
aF-3.4407517004791854
asS'nowhere'
p251
(lp252
F-3.483301952358167
aF-2.963630445759523
asS'grandkids'
p253
(lp254
F-3.006180697638505
aF-3.4407517004791854
asS'control'
p255
(lp256
F-3.483301952358167
aF-2.838691709151223
asS'breathtaking'
p257
(lp258
F-3.006180697638505
aF-3.4407517004791854
asS'love'
p259
(lp260
F-2.7843319480221482
aF-3.4407517004791854
asS'family'
p261
(lp262
F-2.483301952358167
aF-3.4407517004791854
asS'spy'
p263
(lp264
F-2.7051507019745236
aF-3.4407517004791854
asS'worthy'
p265
(lp266
F-3.483301952358167
aF-2.963630445759523
asS'highly'
p267
(lp268
F-2.7051507019745236
aF-3.4407517004791854
asS'psychological'
p269
(lp270
F-3.483301952358167
aF-3.4407517004791854
asS'patience'
p271
(lp272
F-3.483301952358167
aF-2.963630445759523
asS'wit'
p273
(lp274
F-2.7843319480221482
aF-3.4407517004791854
asS'aimed'
p275
(lp276
F-3.006180697638505
aF-3.4407517004791854
asS'resolutions'
p277
(lp278
F-3.483301952358167
aF-2.963630445759523
asS'should'
p279
(lp280
F-3.006180697638505
aF-2.963630445759523
asS'witnessed'
p281
(lp282
F-3.006180697638505
aF-3.4407517004791854
asS'around'
p283
(lp284
F-2.483301952358167
aF-2.7417816961431667
asS'environment'
p285
(lp286
F-3.006180697638505
aF-3.4407517004791854
asS'crap'
p287
(lp288
F-3.483301952358167
aF-2.7417816961431667
asS'vivid'
p289
(lp290
F-3.006180697638505
aF-3.4407517004791854
asS'sake'
p291
(lp292
F-3.483301952358167
aF-2.963630445759523
asS'forcefully'
p293
(lp294
F-3.006180697638505
aF-3.4407517004791854
asS'france'
p295
(lp296
F-3.006180697638505
aF-3.4407517004791854
asS'few'
p297
(lp298
F-3.483301952358167
aF-2.963630445759523
asS'wonderfully'
p299
(lp300
F-2.8812419610302045
aF-3.4407517004791854
asS'wondering'
p301
(lp302
F-3.483301952358167
aF-3.4407517004791854
asS'memory'
p303
(lp304
F-3.483301952358167
aF-3.4407517004791854
asS'films'
p305
(lp306
F-3.006180697638505
aF-2.5956536604649285
asS'themselves'
p307
(lp308
F-3.006180697638505
aF-3.4407517004791854
asS'harrowing'
p309
(lp310
F-3.006180697638505
aF-3.4407517004791854
asS'until'
p311
(lp312
F-3.006180697638505
aF-3.4407517004791854
asS'more'
p313
(lp314
F-2.529059442918842
aF-2.1619980995263566
asS'flat'
p315
(lp316
F-3.006180697638505
aF-2.838691709151223
asS'clever'
p317
(lp318
F-2.7843319480221482
aF-3.4407517004791854
asS'knows'
p319
(lp320
F-3.483301952358167
aF-3.4407517004791854
asS'scary'
p321
(lp322
F-3.483301952358167
aF-2.963630445759523
asS'successful'
p323
(lp324
F-3.006180697638505
aF-3.4407517004791854
asS'oscar'
p325
(lp326
F-3.006180697638505
aF-3.4407517004791854
asS'company'
p327
(lp328
F-3.483301952358167
aF-2.963630445759523
asS'charming'
p329
(lp330
F-2.8812419610302045
aF-3.4407517004791854
asS'excuse'
p331
(lp332
F-3.006180697638505
aF-3.4407517004791854
asS'visual'
p333
(lp334
F-2.8812419610302045
aF-3.4407517004791854
asS'sobering'
p335
(lp336
F-3.006180697638505
aF-3.4407517004791854
asS'surface'
p337
(lp338
F-3.483301952358167
aF-2.963630445759523
asS'known'
p339
(lp340
F-3.006180697638505
aF-3.4407517004791854
asS'hole'
p341
(lp342
F-3.483301952358167
aF-2.963630445759523
asS'iii'
p343
(lp344
F-3.006180697638505
aF-3.4407517004791854
asS'must'
p345
(lp346
F-3.006180697638505
aF-3.4407517004791854
asS'none'
p347
(lp348
F-3.483301952358167
aF-2.838691709151223
asS'word'
p349
(lp350
F-3.483301952358167
aF-2.963630445759523
asS'room'
p351
(lp352
F-3.483301952358167
aF-2.838691709151223
asS'hour'
p353
(lp354
F-3.006180697638505
aF-2.7417816961431667
asS'car'
p355
(lp356
F-3.483301952358167
aF-2.963630445759523
asS'ride'
p357
(lp358
F-2.8812419610302045
aF-3.4407517004791854
asS'clients'
p359
(lp360
F-3.006180697638505
aF-3.4407517004791854
asS'soul'
p361
(lp362
F-3.483301952358167
aF-2.963630445759523
asS'movies'
p363
(lp364
F-2.5802119653662237
aF-2.838691709151223
asS'sour'
p365
(lp366
F-3.483301952358167
aF-2.963630445759523
asS'indescribably'
p367
(lp368
F-3.483301952358167
aF-2.838691709151223
asS'thin'
p369
(lp370
F-3.483301952358167
aF-2.838691709151223
asS'evolved'
p371
(lp372
F-3.006180697638505
aF-3.4407517004791854
asS'making'
p373
(lp374
F-3.483301952358167
aF-2.963630445759523
asS'male'
p375
(lp376
F-3.006180697638505
aF-3.4407517004791854
asS'conformity'
p377
(lp378
F-3.483301952358167
aF-2.963630445759523
asS'cussing'
p379
(lp380
F-3.006180697638505
aF-3.4407517004791854
asS'slightest'
p381
(lp382
F-3.483301952358167
aF-2.963630445759523
asS'history'
p383
(lp384
F-3.006180697638505
aF-2.838691709151223
asS'beautiful'
p385
(lp386
F-2.7843319480221482
aF-3.4407517004791854
asS'heart'
p387
(lp388
F-2.7843319480221482
aF-3.4407517004791854
asS'ingenuity'
p389
(lp390
F-3.483301952358167
aF-2.963630445759523
asS'indie'
p391
(lp392
F-3.483301952358167
aF-2.963630445759523
asS'laughs'
p393
(lp394
F-3.483301952358167
aF-2.838691709151223
asS'pieces'
p395
(lp396
F-3.006180697638505
aF-3.4407517004791854
asS'imitation'
p397
(lp398
F-3.483301952358167
aF-2.963630445759523
asS'documenting'
p399
(lp400
F-3.006180697638505
aF-3.4407517004791854
asS'sense'
p401
(lp402
F-3.006180697638505
aF-2.963630445759523
asS'lacks'
p403
(lp404
F-3.483301952358167
aF-2.963630445759523
asS'mainstream'
p405
(lp406
F-3.483301952358167
aF-2.963630445759523
asS'huge'
p407
(lp408
F-3.483301952358167
aF-2.963630445759523
asS'needs'
p409
(lp410
F-3.483301952358167
aF-2.963630445759523
asS'redundancy'
p411
(lp412
F-3.483301952358167
aF-2.838691709151223
asS'end'
p413
(lp414
F-3.006180697638505
aF-2.662600450095542
asS'daring'
p415
(lp416
F-3.006180697638505
aF-3.4407517004791854
asS'delivers'
p417
(lp418
F-2.7051507019745236
aF-3.4407517004791854
asS'sit'
p419
(lp420
F-3.483301952358167
aF-2.5956536604649285
asS'rather'
p421
(lp422
F-3.006180697638505
aF-2.838691709151223
asS'acts'
p423
(lp424
F-3.006180697638505
aF-3.4407517004791854
asS'feature'
p425
(lp426
F-2.6382039123439105
aF-3.4407517004791854
asS'far'
p427
(lp428
F-3.006180697638505
aF-2.838691709151223
asS'hot'
p429
(lp430
F-3.006180697638505
aF-3.4407517004791854
asS'hop'
p431
(lp432
F-3.483301952358167
aF-2.963630445759523
asS'instead'
p433
(lp434
F-3.483301952358167
aF-2.963630445759523
asS'comedy'
p435
(lp436
F-2.307210693302486
aF-2.4407517004791854
asS'intelligent'
p437
(lp438
F-2.7843319480221482
aF-3.4407517004791854
asS'profile'
p439
(lp440
F-3.006180697638505
aF-3.4407517004791854
asS'finale'
p441
(lp442
F-3.006180697638505
aF-3.4407517004791854
asS'levy'
p443
(lp444
F-3.006180697638505
aF-3.4407517004791854
asS'explores'
p445
(lp446
F-3.006180697638505
aF-3.4407517004791854
asS'intended'
p447
(lp448
F-3.483301952358167
aF-3.4407517004791854
asS'capture'
p449
(lp450
F-2.7843319480221482
aF-3.4407517004791854
asS'may'
p451
(lp452
F-2.8812419610302045
aF-3.4407517004791854
asS'demonstrates'
p453
(lp454
F-2.7843319480221482
aF-3.4407517004791854
asS'sacrifice'
p455
(lp456
F-3.006180697638505
aF-3.4407517004791854
asS'exoticism'
p457
(lp458
F-3.006180697638505
aF-3.4407517004791854
asS'collection'
p459
(lp460
F-3.006180697638505
aF-3.4407517004791854
asS'designed'
p461
(lp462
F-3.483301952358167
aF-2.963630445759523
asS'coming'
p463
(lp464
F-3.483301952358167
aF-2.838691709151223
asS'date'
p465
(lp466
F-3.483301952358167
aF-2.963630445759523
asS'such'
p467
(lp468
F-2.7843319480221482
aF-2.963630445759523
asS'dumbo'
p469
(lp470
F-3.006180697638505
aF-3.4407517004791854
asS'destructive'
p471
(lp472
F-3.483301952358167
aF-2.963630445759523
asS'nomination'
p473
(lp474
F-3.006180697638505
aF-3.4407517004791854
asS'bleak'
p475
(lp476
F-3.483301952358167
aF-2.963630445759523
asS'man'
p477
(lp478
F-2.7843319480221482
aF-3.4407517004791854
asS'contrived'
p479
(lp480
F-3.483301952358167
aF-2.7417816961431667
asS'short'
p481
(lp482
F-3.483301952358167
aF-2.963630445759523
asS'natural'
p483
(lp484
F-3.006180697638505
aF-3.4407517004791854
asS'splendid'
p485
(lp486
F-3.006180697638505
aF-3.4407517004791854
asS'effective'
p487
(lp488
F-3.006180697638505
aF-3.4407517004791854
asS'counter'
p489
(lp490
F-3.006180697638505
aF-3.4407517004791854
asS'life'
p491
(lp492
F-3.006180697638505
aF-2.3993590153209605
asS'redundant'
p493
(lp494
F-3.483301952358167
aF-2.963630445759523
asS'tale'
p495
(lp496
F-2.7051507019745236
aF-3.4407517004791854
asS'chief'
p497
(lp498
F-3.006180697638505
aF-3.4407517004791854
asS'funniest'
p499
(lp500
F-3.006180697638505
aF-3.4407517004791854
asS'improvised'
p501
(lp502
F-3.483301952358167
aF-2.963630445759523
asS'keeps'
p503
(lp504
F-3.483301952358167
aF-2.963630445759523
asS'worst'
p505
(lp506
F-3.483301952358167
aF-2.5956536604649285
asS'order'
p507
(lp508
F-3.006180697638505
aF-3.4407517004791854
asS'executed'
p509
(lp510
F-2.8812419610302045
aF-3.4407517004791854
asS'unfolds'
p511
(lp512
F-3.006180697638505
aF-3.4407517004791854
asS'muzak'
p513
(lp514
F-3.483301952358167
aF-2.838691709151223
asS'developed'
p515
(lp516
F-3.483301952358167
aF-2.963630445759523
asS'insight'
p517
(lp518
F-2.8812419610302045
aF-3.4407517004791854
asS'midnight'
p519
(lp520
F-2.7843319480221482
aF-3.4407517004791854
asS'satisfied'
p521
(lp522
F-3.006180697638505
aF-3.4407517004791854
asS'years'
p523
(lp524
F-2.6382039123439105
aF-2.838691709151223
asS'playful'
p525
(lp526
F-3.006180697638505
aF-3.4407517004791854
asS'course'
p527
(lp528
F-3.483301952358167
aF-2.963630445759523
asS'paper'
p529
(lp530
F-3.483301952358167
aF-2.963630445759523
asS'through'
p531
(lp532
F-3.006180697638505
aF-2.3615704544315608
asS'pitch'
p533
(lp534
F-3.006180697638505
aF-3.4407517004791854
asS'budding'
p535
(lp536
F-3.006180697638505
aF-3.4407517004791854
asS'visceral'
p537
(lp538
F-3.006180697638505
aF-3.4407517004791854
asS'operative'
p539
(lp540
F-3.483301952358167
aF-2.963630445759523
asS'before'
p541
(lp542
F-3.483301952358167
aF-2.7417816961431667
asS'perfect'
p543
(lp544
F-2.7843319480221482
aF-3.4407517004791854
asS'style'
p545
(lp546
F-2.8812419610302045
aF-3.4407517004791854
asS'conned'
p547
(lp548
F-3.006180697638505
aF-3.4407517004791854
asS'broiling'
p549
(lp550
F-3.483301952358167
aF-2.838691709151223
asS'burning'
p551
(lp552
F-3.006180697638505
aF-3.4407517004791854
asS'fit'
p553
(lp554
F-3.483301952358167
aF-2.838691709151223
asS'call'
p555
(lp556
F-3.006180697638505
aF-3.4407517004791854
asS'interesting'
p557
(lp558
F-2.7843319480221482
aF-2.7417816961431667
asS'plot'
p559
(lp560
F-3.483301952358167
aF-2.3993590153209605
asS'jim'
p561
(lp562
F-3.483301952358167
aF-3.4407517004791854
asS'better'
p563
(lp564
F-3.006180697638505
aF-3.4407517004791854
asS'feel'
p565
(lp566
F-2.5802119653662237
aF-2.5376617134872417
asS'production'
p567
(lp568
F-3.483301952358167
aF-2.838691709151223
asS'compelling'
p569
(lp570
F-3.006180697638505
aF-3.4407517004791854
asS'astonish'
p571
(lp572
F-3.006180697638505
aF-3.4407517004791854
asS'drumline'
p573
(lp574
F-3.006180697638505
aF-3.4407517004791854
asS'cool'
p575
(lp576
F-3.006180697638505
aF-3.4407517004791854
asS'admirable'
p577
(lp578
F-3.006180697638505
aF-3.4407517004791854
asS'overcome'
p579
(lp580
F-3.483301952358167
aF-2.963630445759523
asS'pleasurable'
p581
(lp582
F-3.006180697638505
aF-3.4407517004791854
asS'evening'
p583
(lp584
F-3.006180697638505
aF-3.4407517004791854
asS'fourth'
p585
(lp586
F-3.006180697638505
aF-3.4407517004791854
asS'drama'
p587
(lp588
F-2.441909267199942
aF-3.4407517004791854
asS'impulses'
p589
(lp590
F-3.006180697638505
aF-3.4407517004791854
asS'conversations'
p591
(lp592
F-3.006180697638505
aF-3.4407517004791854
asS'material'
p593
(lp594
F-3.483301952358167
aF-2.662600450095542
asS'scene'
p595
(lp596
F-3.006180697638505
aF-3.4407517004791854
asS'lunch'
p597
(lp598
F-3.483301952358167
aF-2.838691709151223
asS'walls'
p599
(lp600
F-3.006180697638505
aF-3.4407517004791854
asS'touching'
p601
(lp602
F-3.006180697638505
aF-3.4407517004791854
asS'intellectual'
p603
(lp604
F-3.483301952358167
aF-2.963630445759523
asS'base'
p605
(lp606
F-3.006180697638505
aF-3.4407517004791854
asS'half'
p607
(lp608
F-3.483301952358167
aF-2.5956536604649285
asS'not'
p609
(lp610
F-2.529059442918842
aF-2.264660441423504
asS'downright'
p611
(lp612
F-3.483301952358167
aF-2.963630445759523
asS'silver'
p613
(lp614
F-3.006180697638505
aF-3.4407517004791854
asS'viewers'
p615
(lp616
F-3.006180697638505
aF-3.4407517004791854
asS'represents'
p617
(lp618
F-3.006180697638505
aF-3.4407517004791854
asS'gets'
p619
(lp620
F-3.006180697638505
aF-2.7417816961431667
asS'opera'
p621
(lp622
F-3.006180697638505
aF-3.4407517004791854
asS'always'
p623
(lp624
F-2.6382039123439105
aF-3.4407517004791854
asS'amateurish'
p625
(lp626
F-3.483301952358167
aF-2.838691709151223
asS'debut'
p627
(lp628
F-2.7051507019745236
aF-3.4407517004791854
asS'delightful'
p629
(lp630
F-3.006180697638505
aF-3.4407517004791854
asS'grandeur'
p631
(lp632
F-2.8812419610302045
aF-3.4407517004791854
asS'truth'
p633
(lp634
F-3.006180697638505
aF-3.4407517004791854
asS'each'
p635
(lp636
F-2.529059442918842
aF-3.4407517004791854
asS'done'
p637
(lp638
F-2.8812419610302045
aF-3.4407517004791854
asS'entirely'
p639
(lp640
F-3.483301952358167
aF-2.662600450095542
asS'friendship'
p641
(lp642
F-3.006180697638505
aF-3.4407517004791854
asS'studios'
p643
(lp644
F-3.483301952358167
aF-2.963630445759523
asS'everyone'
p645
(lp646
F-3.483301952358167
aF-2.838691709151223
asS'delicious'
p647
(lp648
F-3.006180697638505
aF-3.4407517004791854
asS'doing'
p649
(lp650
F-3.006180697638505
aF-3.4407517004791854
asS'series'
p651
(lp652
F-3.483301952358167
aF-2.963630445759523
asS'energy'
p653
(lp654
F-2.7843319480221482
aF-3.4407517004791854
asS'hard'
p655
(lp656
F-3.006180697638505
aF-2.838691709151223
asS'diane'
p657
(lp658
F-3.006180697638505
aF-3.4407517004791854
asS'spider'
p659
(lp660
F-3.006180697638505
aF-3.4407517004791854
asS'engaging'
p661
(lp662
F-2.5802119653662237
aF-3.4407517004791854
asS'bland'
p663
(lp664
F-3.483301952358167
aF-2.838691709151223
asS'thirteen'
p665
(lp666
F-3.006180697638505
aF-3.4407517004791854
asS'weave'
p667
(lp668
F-3.006180697638505
aF-3.4407517004791854
asS'stealing'
p669
(lp670
F-3.483301952358167
aF-2.838691709151223
asS'girl'
p671
(lp672
F-2.7843319480221482
aF-2.963630445759523
asS'beyond'
p673
(lp674
F-3.483301952358167
aF-2.963630445759523
asS'message'
p675
(lp676
F-3.483301952358167
aF-3.4407517004791854
asS'special'
p677
(lp678
F-3.483301952358167
aF-2.963630445759523
asS'really'
p679
(lp680
F-3.483301952358167
aF-2.5376617134872417
asS'ultimately'
p681
(lp682
F-3.483301952358167
aF-2.963630445759523
asS'jackson'
p683
(lp684
F-3.483301952358167
aF-3.4407517004791854
asS'stitch'
p685
(lp686
F-3.006180697638505
aF-3.4407517004791854
asS'actor'
p687
(lp688
F-3.483301952358167
aF-2.963630445759523
asS'spectrum'
p689
(lp690
F-3.006180697638505
aF-3.4407517004791854
asS'god'
p691
(lp692
F-3.006180697638505
aF-3.4407517004791854
asS'since'
p693
(lp694
F-3.006180697638505
aF-2.838691709151223
asS'communal'
p695
(lp696
F-3.006180697638505
aF-3.4407517004791854
asS'looking'
p697
(lp698
F-3.483301952358167
aF-2.963630445759523
asS'fellowship'
p699
(lp700
F-3.006180697638505
aF-3.4407517004791854
asS'numbingly'
p701
(lp702
F-3.483301952358167
aF-2.838691709151223
asS'humanistic'
p703
(lp704
F-3.006180697638505
aF-3.4407517004791854
asS'masterpiece'
p705
(lp706
F-2.7843319480221482
aF-3.4407517004791854
asS'hilarious'
p707
(lp708
F-2.4041207063105423
aF-3.4407517004791854
asS'suggesting'
p709
(lp710
F-3.006180697638505
aF-3.4407517004791854
asS'got'
p711
(lp712
F-3.483301952358167
aF-2.963630445759523
asS'tiresome'
p713
(lp714
F-3.483301952358167
aF-2.963630445759523
asS'dominate'
p715
(lp716
F-3.006180697638505
aF-3.4407517004791854
asS'warm'
p717
(lp718
F-2.7843319480221482
aF-3.4407517004791854
asS'monster'
p719
(lp720
F-3.006180697638505
aF-2.963630445759523
asS'infidelity'
p721
(lp722
F-3.006180697638505
aF-3.4407517004791854
asS'easily'
p723
(lp724
F-3.006180697638505
aF-3.4407517004791854
asS'frank'
p725
(lp726
F-3.006180697638505
aF-3.4407517004791854
asS'incompetent'
p727
(lp728
F-3.483301952358167
aF-2.963630445759523
asS'story'
p729
(lp730
F-2.441909267199942
aF-2.4865091910398607
asS'quite'
p731
(lp732
F-3.483301952358167
aF-2.963630445759523
asS'extraordinary'
p733
(lp734
F-2.8812419610302045
aF-3.4407517004791854
asS'completely'
p735
(lp736
F-3.483301952358167
aF-3.4407517004791854
asS'dashing'
p737
(lp738
F-3.006180697638505
aF-3.4407517004791854
asS'surely'
p739
(lp740
F-3.483301952358167
aF-2.963630445759523
asS'imagine'
p741
(lp742
F-3.483301952358167
aF-2.662600450095542
asS'put'
p743
(lp744
F-3.483301952358167
aF-2.838691709151223
asS'wanted'
p745
(lp746
F-3.483301952358167
aF-3.4407517004791854
asS'care'
p747
(lp748
F-2.8812419610302045
aF-2.7417816961431667
asS'broaches'
p749
(lp750
F-3.006180697638505
aF-3.4407517004791854
asS'echelons'
p751
(lp752
F-3.006180697638505
aF-3.4407517004791854
asS'shocking'
p753
(lp754
F-3.483301952358167
aF-2.963630445759523
asS'subzero'
p755
(lp756
F-3.483301952358167
aF-2.963630445759523
asS'starts'
p757
(lp758
F-3.483301952358167
aF-2.963630445759523
asS'sitcom'
p759
(lp760
F-3.483301952358167
aF-2.838691709151223
asS'british'
p761
(lp762
F-3.006180697638505
aF-3.4407517004791854
asS'times'
p763
(lp764
F-3.483301952358167
aF-2.838691709151223
asS'motion'
p765
(lp766
F-2.8812419610302045
aF-3.4407517004791854
asS'thing'
p767
(lp768
F-2.8812419610302045
aF-2.963630445759523
asS'american'
p769
(lp770
F-2.8812419610302045
aF-3.4407517004791854
asS'chills'
p771
(lp772
F-2.7843319480221482
aF-3.4407517004791854
asS'loud'
p773
(lp774
F-3.483301952358167
aF-2.838691709151223
asS'solidly'
p775
(lp776
F-3.006180697638505
aF-3.4407517004791854
asS'flick'
p777
(lp778
F-3.483301952358167
aF-3.4407517004791854
asS'vulgar'
p779
(lp780
F-3.006180697638505
aF-3.4407517004791854
asS'features'
p781
(lp782
F-3.006180697638505
aF-3.4407517004791854
asS'apocalypse'
p783
(lp784
F-3.006180697638505
aF-3.4407517004791854
asS'grade'
p785
(lp786
F-3.006180697638505
aF-3.4407517004791854
asS'powerful'
p787
(lp788
F-2.7051507019745236
aF-3.4407517004791854
asS'inauthentic'
p789
(lp790
F-3.483301952358167
aF-2.963630445759523
asS'soothing'
p791
(lp792
F-3.483301952358167
aF-2.838691709151223
asS'fits'
p793
(lp794
F-3.006180697638505
aF-3.4407517004791854
asS'wallflower'
p795
(lp796
F-3.006180697638505
aF-3.4407517004791854
asS'americans'
p797
(lp798
F-3.006180697638505
aF-3.4407517004791854
asS'long'
p799
(lp800
F-3.006180697638505
aF-2.5376617134872417
asS'another'
p801
(lp802
F-3.483301952358167
aF-2.7417816961431667
asS'gasp'
p803
(lp804
F-3.006180697638505
aF-3.4407517004791854
asS'carry'
p805
(lp806
F-3.006180697638505
aF-3.4407517004791854
asS'impossible'
p807
(lp808
F-3.483301952358167
aF-2.963630445759523
asS'comic'
p809
(lp810
F-2.8812419610302045
aF-3.4407517004791854
asS'quality'
p811
(lp812
F-3.483301952358167
aF-3.4407517004791854
asS'concert'
p813
(lp814
F-3.483301952358167
aF-2.963630445759523
asS'little'
p815
(lp816
F-2.8812419610302045
aF-2.4865091910398607
asS'cynical'
p817
(lp818
F-3.483301952358167
aF-2.963630445759523
asS'script'
p819
(lp820
F-3.483301952358167
aF-2.662600450095542
asS'murky'
p821
(lp822
F-3.483301952358167
aF-2.963630445759523
asS'interviews'
p823
(lp824
F-3.006180697638505
aF-3.4407517004791854
asS'structured'
p825
(lp826
F-3.483301952358167
aF-2.838691709151223
asS'twisted'
p827
(lp828
F-2.8812419610302045
aF-3.4407517004791854
asS'fiction'
p829
(lp830
F-3.483301952358167
aF-2.963630445759523
asS'anyone'
p831
(lp832
F-3.006180697638505
aF-2.838691709151223
asS'outing'
p833
(lp834
F-3.006180697638505
aF-3.4407517004791854
asS'flimsy'
p835
(lp836
F-3.483301952358167
aF-2.963630445759523
asS'wonderful'
p837
(lp838
F-2.7843319480221482
aF-3.4407517004791854
asS'too'
p839
(lp840
F-3.483301952358167
aF-2.3268083481723485
asS'hollywood'
p841
(lp842
F-3.006180697638505
aF-2.963630445759523
asS'kid'
p843
(lp844
F-3.006180697638505
aF-3.4407517004791854
asS'final'
p845
(lp846
F-3.006180697638505
aF-2.963630445759523
asS'painful'
p847
(lp848
F-2.8812419610302045
aF-3.4407517004791854
asS'urban'
p849
(lp850
F-3.006180697638505
aF-3.4407517004791854
asS'rewards'
p851
(lp852
F-3.006180697638505
aF-3.4407517004791854
asS'ambiguous'
p853
(lp854
F-3.006180697638505
aF-3.4407517004791854
asS'uncommonly'
p855
(lp856
F-3.006180697638505
aF-3.4407517004791854
asS'exactly'
p857
(lp858
F-3.483301952358167
aF-2.963630445759523
asS'rejected'
p859
(lp860
F-3.483301952358167
aF-2.838691709151223
asS'dentist'
p861
(lp862
F-3.483301952358167
aF-2.838691709151223
asS'sequels'
p863
(lp864
F-3.483301952358167
aF-3.4407517004791854
asS'predictable'
p865
(lp866
F-3.483301952358167
aF-2.662600450095542
asS'somewhat'
p867
(lp868
F-3.006180697638505
aF-3.4407517004791854
asS'wasted'
p869
(lp870
F-3.483301952358167
aF-2.838691709151223
asS'attempt'
p871
(lp872
F-3.483301952358167
aF-2.963630445759523
asS'believe'
p873
(lp874
F-3.483301952358167
aF-2.838691709151223
asS'crawl'
p875
(lp876
F-3.483301952358167
aF-2.963630445759523
asS'white'
p877
(lp878
F-2.8812419610302045
aF-3.4407517004791854
asS'updating'
p879
(lp880
F-3.006180697638505
aF-3.4407517004791854
asS'begins'
p881
(lp882
F-3.483301952358167
aF-3.4407517004791854
asS'past'
p883
(lp884
F-3.483301952358167
aF-2.963630445759523
asS'kind'
p885
(lp886
F-2.8812419610302045
aF-2.963630445759523
asS'grew'
p887
(lp888
F-3.006180697638505
aF-3.4407517004791854
asS'namesake'
p889
(lp890
F-3.006180697638505
aF-3.4407517004791854
asS'rival'
p891
(lp892
F-3.006180697638505
aF-3.4407517004791854
asS'scenes'
p893
(lp894
F-2.7843319480221482
aF-2.963630445759523
asS'project'
p895
(lp896
F-3.483301952358167
aF-2.963630445759523
asS'sabotaged'
p897
(lp898
F-3.483301952358167
aF-2.963630445759523
asS'appealing'
p899
(lp900
F-3.006180697638505
aF-3.4407517004791854
asS'shyamalan'
p901
(lp902
F-3.006180697638505
aF-3.4407517004791854
asS'silly'
p903
(lp904
F-3.483301952358167
aF-2.838691709151223
asS'uncanny'
p905
(lp906
F-3.006180697638505
aF-3.4407517004791854
asS'were'
p907
(lp908
F-3.483301952358167
aF-2.838691709151223
asS'feeling'
p909
(lp910
F-3.006180697638505
aF-3.4407517004791854
asS'solely'
p911
(lp912
F-3.006180697638505
aF-3.4407517004791854
asS'damned'
p913
(lp914
F-3.006180697638505
aF-3.4407517004791854
asS'imaginative'
p915
(lp916
F-2.7843319480221482
aF-3.4407517004791854
asS'puzzling'
p917
(lp918
F-3.006180697638505
aF-2.963630445759523
asS'false'
p919
(lp920
F-3.483301952358167
aF-2.838691709151223
asS'outstanding'
p921
(lp922
F-3.006180697638505
aF-3.4407517004791854
asS'thriller'
p923
(lp924
F-2.483301952358167
aF-2.963630445759523
asS'turned'
p925
(lp926
F-3.006180697638505
aF-3.4407517004791854
asS'gently'
p927
(lp928
F-3.006180697638505
aF-3.4407517004791854
asS'slap'
p929
(lp930
F-3.006180697638505
aF-3.4407517004791854
asS'sad'
p931
(lp932
F-3.483301952358167
aF-2.963630445759523
asS'himself'
p933
(lp934
F-3.006180697638505
aF-3.4407517004791854
asS'suspense'
p935
(lp936
F-3.006180697638505
aF-3.4407517004791854
asS'close'
p937
(lp938
F-3.483301952358167
aF-2.838691709151223
asS'bigelow'
p939
(lp940
F-3.006180697638505
aF-3.4407517004791854
asS'seen'
p941
(lp942
F-3.483301952358167
aF-2.963630445759523
asS'seem'
p943
(lp944
F-3.483301952358167
aF-2.963630445759523
asS'edgy'
p945
(lp946
F-2.8812419610302045
aF-3.4407517004791854
asS'saw'
p947
(lp948
F-3.483301952358167
aF-2.838691709151223
asS'clearly'
p949
(lp950
F-3.483301952358167
aF-2.963630445759523
asS'afraid'
p951
(lp952
F-3.006180697638505
aF-3.4407517004791854
asS'genuine'
p953
(lp954
F-3.006180697638505
aF-3.4407517004791854
asS'something'
p955
(lp956
F-3.006180697638505
aF-2.5956536604649285
asS'skillful'
p957
(lp958
F-3.006180697638505
aF-3.4407517004791854
asS'thoroughly'
p959
(lp960
F-3.006180697638505
aF-2.7417816961431667
asS'latter'
p961
(lp962
F-3.483301952358167
aF-2.838691709151223
asS'trapped'
p963
(lp964
F-3.483301952358167
aF-2.963630445759523
asS'ideas'
p965
(lp966
F-3.483301952358167
aF-2.963630445759523
asS'camouflage'
p967
(lp968
F-3.483301952358167
aF-2.963630445759523
asS'terrific'
p969
(lp970
F-2.8812419610302045
aF-3.4407517004791854
asS'recommended'
p971
(lp972
F-3.483301952358167
aF-2.838691709151223
asS'recreates'
p973
(lp974
F-3.006180697638505
aF-3.4407517004791854
asS'take'
p975
(lp976
F-2.8812419610302045
aF-3.4407517004791854
asS'laughed'
p977
(lp978
F-3.006180697638505
aF-3.4407517004791854
asS'finding'
p979
(lp980
F-3.483301952358167
aF-2.963630445759523
asS'performance'
p981
(lp982
F-2.483301952358167
aF-3.4407517004791854
asS'hedonistic'
p983
(lp984
F-3.006180697638505
aF-3.4407517004791854
asS'begin'
p985
(lp986
F-3.483301952358167
aF-2.838691709151223
asS'sure'
p987
(lp988
F-3.483301952358167
aF-2.7417816961431667
asS'bruce'
p989
(lp990
F-3.006180697638505
aF-3.4407517004791854
asS'knew'
p991
(lp992
F-3.006180697638505
aF-3.4407517004791854
asS'paid'
p993
(lp994
F-3.483301952358167
aF-2.963630445759523
asS'falls'
p995
(lp996
F-3.483301952358167
aF-2.963630445759523
asS'assault'
p997
(lp998
F-3.483301952358167
aF-2.963630445759523
asS'involving'
p999
(lp1000
F-3.006180697638505
aF-3.4407517004791854
asS'charm'
p1001
(lp1002
F-3.006180697638505
aF-2.963630445759523
asS'expertly'
p1003
(lp1004
F-3.006180697638505
aF-3.4407517004791854
asS'nothing'
p1005
(lp1006
F-3.483301952358167
aF-2.5376617134872417
asS'laughter'
p1007
(lp1008
F-2.8812419610302045
aF-3.4407517004791854
asS'awe'
p1009
(lp1010
F-2.8812419610302045
aF-3.4407517004791854
asS'fisted'
p1011
(lp1012
F-3.483301952358167
aF-2.963630445759523
asS'why'
p1013
(lp1014
F-3.483301952358167
aF-2.662600450095542
asS'achievement'
p1015
(lp1016
F-2.8812419610302045
aF-3.4407517004791854
asS'machismo'
p1017
(lp1018
F-3.006180697638505
aF-3.4407517004791854
asS'refreshing'
p1019
(lp1020
F-2.8812419610302045
aF-3.4407517004791854
asS'surprising'
p1021
(lp1022
F-2.6382039123439105
aF-3.4407517004791854
asS'performances'
p1023
(lp1024
F-2.2528530309798933
aF-2.963630445759523
asS'prevails'
p1025
(lp1026
F-3.006180697638505
aF-3.4407517004791854
asS'sometimes'
p1027
(lp1028
F-2.7843319480221482
aF-3.4407517004791854
asS'gracefully'
p1029
(lp1030
F-3.006180697638505
aF-3.4407517004791854
asS'face'
p1031
(lp1032
F-3.006180697638505
aF-3.4407517004791854
asS'astonishing'
p1033
(lp1034
F-2.8812419610302045
aF-3.4407517004791854
asS'definitely'
p1035
(lp1036
F-3.483301952358167
aF-2.963630445759523
asS'propels'
p1037
(lp1038
F-3.006180697638505
aF-3.4407517004791854
asS'absurd'
p1039
(lp1040
F-3.006180697638505
aF-3.4407517004791854
asS'deeply'
p1041
(lp1042
F-2.7843319480221482
aF-3.4407517004791854
asS'entertaining'
p1043
(lp1044
F-2.6382039123439105
aF-2.963630445759523
asS'blend'
p1045
(lp1046
F-3.006180697638505
aF-3.4407517004791854
asS'fact'
p1047
(lp1048
F-3.483301952358167
aF-2.963630445759523
asS'walking'
p1049
(lp1050
F-3.006180697638505
aF-3.4407517004791854
asS'shot'
p1051
(lp1052
F-3.006180697638505
aF-3.4407517004791854
asS'absorbing'
p1053
(lp1054
F-3.006180697638505
aF-3.4407517004791854
asS'random'
p1055
(lp1056
F-3.483301952358167
aF-2.963630445759523
asS'cheap'
p1057
(lp1058
F-3.483301952358167
aF-2.963630445759523
asS'contemporary'
p1059
(lp1060
F-3.006180697638505
aF-3.4407517004791854
asS'ending'
p1061
(lp1062
F-3.006180697638505
aF-3.4407517004791854
asS'bring'
p1063
(lp1064
F-3.006180697638505
aF-3.4407517004791854
asS'solutions'
p1065
(lp1066
F-3.483301952358167
aF-2.963630445759523
asS'fuzzy'
p1067
(lp1068
F-3.006180697638505
aF-3.4407517004791854
asS'telling'
p1069
(lp1070
F-2.6382039123439105
aF-2.963630445759523
asS'fine'
p1071
(lp1072
F-3.006180697638505
aF-2.963630445759523
asS'find'
p1073
(lp1074
F-2.8812419610302045
aF-2.838691709151223
asS'depth'
p1075
(lp1076
F-3.006180697638505
aF-3.4407517004791854
asS'giant'
p1077
(lp1078
F-3.483301952358167
aF-2.963630445759523
asS'busy'
p1079
(lp1080
F-3.483301952358167
aF-2.963630445759523
asS'painfully'
p1081
(lp1082
F-3.483301952358167
aF-2.963630445759523
asS'spite'
p1083
(lp1084
F-3.006180697638505
aF-3.4407517004791854
asS'earned'
p1085
(lp1086
F-3.006180697638505
aF-3.4407517004791854
asS'justice'
p1087
(lp1088
F-3.006180697638505
aF-3.4407517004791854
asS'humor'
p1089
(lp1090
F-2.7051507019745236
aF-2.963630445759523
asS'winner'
p1091
(lp1092
F-2.8812419610302045
aF-3.4407517004791854
asS'punny'
p1093
(lp1094
F-3.006180697638505
aF-3.4407517004791854
asS'waiting'
p1095
(lp1096
F-3.483301952358167
aF-2.662600450095542
asS'crime'
p1097
(lp1098
F-2.7051507019745236
aF-2.7417816961431667
asS'moments'
p1099
(lp1100
F-2.7843319480221482
aF-3.4407517004791854
asS'tears'
p1101
(lp1102
F-3.006180697638505
aF-3.4407517004791854
asS'bliss'
p1103
(lp1104
F-3.006180697638505
aF-3.4407517004791854
asS'touched'
p1105
(lp1106
F-3.006180697638505
aF-3.4407517004791854
asS'pretty'
p1107
(lp1108
F-2.8812419610302045
aF-3.4407517004791854
asS'money'
p1109
(lp1110
F-3.483301952358167
aF-2.963630445759523
asS'hardened'
p1111
(lp1112
F-3.483301952358167
aF-2.963630445759523
asS'hip'
p1113
(lp1114
F-3.483301952358167
aF-2.7417816961431667
asS'narrative'
p1115
(lp1116
F-3.483301952358167
aF-2.5956536604649285
asS'hit'
p1117
(lp1118
F-3.006180697638505
aF-3.4407517004791854
asS'watching'
p1119
(lp1120
F-3.006180697638505
aF-2.662600450095542
asS'beat'
p1121
(lp1122
F-3.006180697638505
aF-3.4407517004791854
asS'familiar'
p1123
(lp1124
F-3.483301952358167
aF-2.963630445759523
asS'goosebumps'
p1125
(lp1126
F-3.006180697638505
aF-3.4407517004791854
asS'horrible'
p1127
(lp1128
F-3.483301952358167
aF-2.7417816961431667
asS'watch'
p1129
(lp1130
F-2.8812419610302045
aF-2.963630445759523
asS'cheaper'
p1131
(lp1132
F-3.483301952358167
aF-2.963630445759523
asS'watercolor'
p1133
(lp1134
F-3.006180697638505
aF-3.4407517004791854
asS'feels'
p1135
(lp1136
F-3.483301952358167
aF-2.5956536604649285
asS'malaise'
p1137
(lp1138
F-3.483301952358167
aF-2.963630445759523
asS'inuit'
p1139
(lp1140
F-3.006180697638505
aF-3.4407517004791854
asS'nearly'
p1141
(lp1142
F-3.483301952358167
aF-2.838691709151223
asS'cushion'
p1143
(lp1144
F-3.483301952358167
aF-2.838691709151223
asS'smug'
p1145
(lp1146
F-3.483301952358167
aF-2.963630445759523
asS'during'
p1147
(lp1148
F-3.006180697638505
aF-3.4407517004791854
asS'contriving'
p1149
(lp1150
F-3.483301952358167
aF-2.963630445759523
asS'gem'
p1151
(lp1152
F-3.006180697638505
aF-3.4407517004791854
asS'endless'
p1153
(lp1154
F-3.483301952358167
aF-2.963630445759523
asS'artist'
p1155
(lp1156
F-3.006180697638505
aF-3.4407517004791854
asS'nicely'
p1157
(lp1158
F-3.006180697638505
aF-3.4407517004791854
asS'mcculloch'
p1159
(lp1160
F-3.006180697638505
aF-3.4407517004791854
asS'timeless'
p1161
(lp1162
F-3.006180697638505
aF-3.4407517004791854
asS'idiotic'
p1163
(lp1164
F-3.483301952358167
aF-2.963630445759523
asS'monsters'
p1165
(lp1166
F-3.483301952358167
aF-2.963630445759523
asS'greene'
p1167
(lp1168
F-3.006180697638505
aF-3.4407517004791854
asS'jokes'
p1169
(lp1170
F-3.483301952358167
aF-2.838691709151223
asS'bad'
p1171
(lp1172
F-3.483301952358167
aF-1.9356017221592794
asS'stupid'
p1173
(lp1174
F-3.483301952358167
aF-2.7417816961431667
asS'exercise'
p1175
(lp1176
F-3.006180697638505
aF-2.838691709151223
asS'raunchy'
p1177
(lp1178
F-3.006180697638505
aF-3.4407517004791854
asS'wannabe'
p1179
(lp1180
F-3.483301952358167
aF-2.838691709151223
asS'forster'
p1181
(lp1182
F-3.006180697638505
aF-3.4407517004791854
asS'gibson'
p1183
(lp1184
F-3.006180697638505
aF-3.4407517004791854
asS'vision'
p1185
(lp1186
F-3.006180697638505
aF-3.4407517004791854
asS'guessing'
p1187
(lp1188
F-2.8812419610302045
aF-3.4407517004791854
asS'inventive'
p1189
(lp1190
F-3.006180697638505
aF-3.4407517004791854
asS'mess'
p1191
(lp1192
F-3.483301952358167
aF-2.7417816961431667
asS'disaster'
p1193
(lp1194
F-3.483301952358167
aF-2.662600450095542
asS'fascinating'
p1195
(lp1196
F-2.529059442918842
aF-3.4407517004791854
asS'seas'
p1197
(lp1198
F-3.006180697638505
aF-3.4407517004791854
asS'puddle'
p1199
(lp1200
F-3.483301952358167
aF-2.963630445759523
asS'potent'
p1201
(lp1202
F-3.006180697638505
aF-3.4407517004791854
asS'sex'
p1203
(lp1204
F-3.006180697638505
aF-2.963630445759523
asS'college'
p1205
(lp1206
F-3.006180697638505
aF-3.4407517004791854
asS'simultaneously'
p1207
(lp1208
F-2.7843319480221482
aF-3.4407517004791854
asS'luminous'
p1209
(lp1210
F-3.006180697638505
aF-3.4407517004791854
asS'comfort'
p1211
(lp1212
F-3.006180697638505
aF-3.4407517004791854
asS'prim'
p1213
(lp1214
F-3.006180697638505
aF-3.4407517004791854
asS'seems'
p1215
(lp1216
F-3.483301952358167
aF-2.963630445759523
asS'squandering'
p1217
(lp1218
F-3.483301952358167
aF-2.963630445759523
asS'spirited'
p1219
(lp1220
F-3.006180697638505
aF-3.4407517004791854
asS'fails'
p1221
(lp1222
F-3.483301952358167
aF-2.963630445759523
asS'still'
p1223
(lp1224
F-2.7843319480221482
aF-2.963630445759523
asS'revolution'
p1225
(lp1226
F-3.483301952358167
aF-2.963630445759523
asS'pedigree'
p1227
(lp1228
F-3.483301952358167
aF-2.963630445759523
asS'gags'
p1229
(lp1230
F-3.483301952358167
aF-2.963630445759523
asS'unsettling'
p1231
(lp1232
F-3.006180697638505
aF-3.4407517004791854
asS'pictures'
p1233
(lp1234
F-3.483301952358167
aF-3.4407517004791854
asS'away'
p1235
(lp1236
F-3.006180697638505
aF-3.4407517004791854
asS'pootie'
p1237
(lp1238
F-3.483301952358167
aF-2.838691709151223
asS'superb'
p1239
(lp1240
F-2.8812419610302045
aF-3.4407517004791854
asS'creates'
p1241
(lp1242
F-3.006180697638505
aF-3.4407517004791854
asS'written'
p1243
(lp1244
F-2.8812419610302045
aF-2.963630445759523
asS'grandparents'
p1245
(lp1246
F-3.006180697638505
aF-3.4407517004791854
asS'stories'
p1247
(lp1248
F-2.7843319480221482
aF-3.4407517004791854
asS'neither'
p1249
(lp1250
F-3.006180697638505
aF-3.4407517004791854
asS'dummies'
p1251
(lp1252
F-3.483301952358167
aF-2.963630445759523
asS'across'
p1253
(lp1254
F-2.7843319480221482
aF-3.4407517004791854
asS'lazy'
p1255
(lp1256
F-3.483301952358167
aF-2.838691709151223
asS'loose'
p1257
(lp1258
F-3.483301952358167
aF-2.838691709151223
asS'ability'
p1259
(lp1260
F-2.8812419610302045
aF-3.4407517004791854
asS'missing'
p1261
(lp1262
F-3.006180697638505
aF-3.4407517004791854
asS'screen'
p1263
(lp1264
F-2.8812419610302045
aF-2.963630445759523
asS'attention'
p1265
(lp1266
F-3.006180697638505
aF-3.4407517004791854
asS'deliver'
p1267
(lp1268
F-3.006180697638505
aF-3.4407517004791854
asS'inextricably'
p1269
(lp1270
F-3.006180697638505
aF-3.4407517004791854
asS'embarrassment'
p1271
(lp1272
F-3.483301952358167
aF-2.963630445759523
asS'job'
p1273
(lp1274
F-2.8812419610302045
aF-3.4407517004791854
asS'harvard'
p1275
(lp1276
F-3.483301952358167
aF-2.838691709151223
asS'here'
p1277
(lp1278
F-3.483301952358167
aF-2.662600450095542
asS'premise'
p1279
(lp1280
F-3.483301952358167
aF-2.963630445759523
asS'demonstrate'
p1281
(lp1282
F-3.006180697638505
aF-3.4407517004791854
asS'useless'
p1283
(lp1284
F-3.483301952358167
aF-2.963630445759523
asS'melodrama'
p1285
(lp1286
F-3.006180697638505
aF-3.4407517004791854
asS'lyrical'
p1287
(lp1288
F-3.006180697638505
aF-3.4407517004791854
asS'both'
p1289
(lp1290
F-3.006180697638505
aF-3.4407517004791854
asS'commands'
p1291
(lp1292
F-3.006180697638505
aF-3.4407517004791854
asS'last'
p1293
(lp1294
F-3.483301952358167
aF-2.662600450095542
asS'secrets'
p1295
(lp1296
F-3.483301952358167
aF-3.4407517004791854
asS'many'
p1297
(lp1298
F-2.7843319480221482
aF-3.4407517004791854
asS'barely'
p1299
(lp1300
F-3.483301952358167
aF-2.5376617134872417
asS'minds'
p1301
(lp1302
F-2.7843319480221482
aF-3.4407517004791854
asS'foreign'
p1303
(lp1304
F-3.006180697638505
aF-2.963630445759523
asS'sensitive'
p1305
(lp1306
F-3.006180697638505
aF-3.4407517004791854
asS'else'
p1307
(lp1308
F-3.483301952358167
aF-2.963630445759523
asS'disappointment'
p1309
(lp1310
F-3.483301952358167
aF-2.963630445759523
asS'logic'
p1311
(lp1312
F-3.483301952358167
aF-2.963630445759523
asS'witch'
p1313
(lp1314
F-3.483301952358167
aF-2.963630445759523
asS'whole'
p1315
(lp1316
F-3.483301952358167
aF-2.963630445759523
asS'finds'
p1317
(lp1318
F-3.006180697638505
aF-3.4407517004791854
asS'otherwise'
p1319
(lp1320
F-3.006180697638505
aF-3.4407517004791854
asS'load'
p1321
(lp1322
F-3.483301952358167
aF-2.838691709151223
asS'point'
p1323
(lp1324
F-3.483301952358167
aF-2.5376617134872417
asS'simple'
p1325
(lp1326
F-3.006180697638505
aF-3.4407517004791854
asS'character'
p1327
(lp1328
F-3.483301952358167
aF-2.963630445759523
asS'acted'
p1329
(lp1330
F-2.7843319480221482
aF-2.963630445759523
asS'period'
p1331
(lp1332
F-3.006180697638505
aF-3.4407517004791854
asS'demons'
p1333
(lp1334
F-3.006180697638505
aF-3.4407517004791854
asS'dimensional'
p1335
(lp1336
F-3.483301952358167
aF-2.963630445759523
asS'atrociously'
p1337
(lp1338
F-3.483301952358167
aF-2.963630445759523
asS'laugh'
p1339
(lp1340
F-3.483301952358167
aF-2.963630445759523
asS'majestic'
p1341
(lp1342
F-2.8812419610302045
aF-3.4407517004791854
asS'sees'
p1343
(lp1344
F-3.006180697638505
aF-3.4407517004791854
asS'frenetic'
p1345
(lp1346
F-3.006180697638505
aF-3.4407517004791854
asS'throughout'
p1347
(lp1348
F-2.8812419610302045
aF-3.4407517004791854
asS'shudder'
p1349
(lp1350
F-3.006180697638505
aF-3.4407517004791854
asS'riled'
p1351
(lp1352
F-3.006180697638505
aF-3.4407517004791854
asS'mention'
p1353
(lp1354
F-3.483301952358167
aF-3.4407517004791854
asS'addition'
p1355
(lp1356
F-3.483301952358167
aF-3.4407517004791854
asS'political'
p1357
(lp1358
F-2.8812419610302045
aF-3.4407517004791854
asS'three'
p1359
(lp1360
F-2.8812419610302045
aF-2.5956536604649285
asS'been'
p1361
(lp1362
F-3.006180697638505
aF-2.5376617134872417
asS'whom'
p1363
(lp1364
F-3.483301952358167
aF-2.963630445759523
asS'charisma'
p1365
(lp1366
F-2.8812419610302045
aF-3.4407517004791854
asS'much'
p1367
(lp1368
F-2.441909267199942
aF-2.963630445759523
asS'stanzas'
p1369
(lp1370
F-3.006180697638505
aF-3.4407517004791854
asS'interest'
p1371
(lp1372
F-3.006180697638505
aF-2.963630445759523
asS'expected'
p1373
(lp1374
F-3.006180697638505
aF-3.4407517004791854
asS'territory'
p1375
(lp1376
F-3.006180697638505
aF-3.4407517004791854
asS'warmth'
p1377
(lp1378
F-3.006180697638505
aF-3.4407517004791854
asS'attractive'
p1379
(lp1380
F-3.483301952358167
aF-3.4407517004791854
asS'wants'
p1381
(lp1382
F-3.483301952358167
aF-2.838691709151223
asS'dialogue'
p1383
(lp1384
F-2.8812419610302045
aF-2.7417816961431667
asS'mind'
p1385
(lp1386
F-3.483301952358167
aF-2.662600450095542
asS'gorgeously'
p1387
(lp1388
F-3.006180697638505
aF-3.4407517004791854
asS'filmmaker'
p1389
(lp1390
F-2.8812419610302045
aF-3.4407517004791854
asS'offers'
p1391
(lp1392
F-2.7051507019745236
aF-3.4407517004791854
asS'kids'
p1393
(lp1394
F-3.483301952358167
aF-2.963630445759523
asS'lives'
p1395
(lp1396
F-3.483301952358167
aF-3.4407517004791854
asS'reno'
p1397
(lp1398
F-3.006180697638505
aF-3.4407517004791854
asS'unamusing'
p1399
(lp1400
F-3.483301952358167
aF-2.838691709151223
asS'creeps'
p1401
(lp1402
F-3.483301952358167
aF-2.963630445759523
asS'glides'
p1403
(lp1404
F-3.006180697638505
aF-3.4407517004791854
asS'spirit'
p1405
(lp1406
F-3.006180697638505
aF-3.4407517004791854
asS'those'
p1407
(lp1408
F-2.7051507019745236
aF-2.963630445759523
asS'multi'
p1409
(lp1410
F-3.006180697638505
aF-3.4407517004791854
asS'terrible'
p1411
(lp1412
F-3.483301952358167
aF-2.7417816961431667
asS'crumb'
p1413
(lp1414
F-3.006180697638505
aF-3.4407517004791854
asS'vapid'
p1415
(lp1416
F-3.483301952358167
aF-2.838691709151223
asS'tang'
p1417
(lp1418
F-3.483301952358167
aF-2.838691709151223
asS'might'
p1419
(lp1420
F-2.7843319480221482
aF-2.5376617134872417
asS'brash'
p1421
(lp1422
F-3.483301952358167
aF-3.4407517004791854
asS'pretentious'
p1423
(lp1424
F-3.483301952358167
aF-2.963630445759523
asS'admire'
p1425
(lp1426
F-3.483301952358167
aF-2.963630445759523
asS'ugly'
p1427
(lp1428
F-3.483301952358167
aF-2.838691709151223
asS'while'
p1429
(lp1430
F-3.006180697638505
aF-3.4407517004791854
asS'applies'
p1431
(lp1432
F-3.006180697638505
aF-3.4407517004791854
asS'fun'
p1433
(lp1434
F-2.6382039123439105
aF-2.838691709151223
asS'guide'
p1435
(lp1436
F-3.483301952358167
aF-2.838691709151223
asS'chilling'
p1437
(lp1438
F-3.006180697638505
aF-3.4407517004791854
asS'pack'
p1439
(lp1440
F-3.006180697638505
aF-3.4407517004791854
asS'days'
p1441
(lp1442
F-3.483301952358167
aF-2.838691709151223
asS'costly'
p1443
(lp1444
F-3.483301952358167
aF-2.963630445759523
asS'satisfying'
p1445
(lp1446
F-2.6382039123439105
aF-2.963630445759523
asS'almost'
p1447
(lp1448
F-2.8812419610302045
aF-2.838691709151223
asS'sincere'
p1449
(lp1450
F-3.006180697638505
aF-3.4407517004791854
asS'insanely'
p1451
(lp1452
F-2.8812419610302045
aF-3.4407517004791854
asS'surprisingly'
p1453
(lp1454
F-2.6382039123439105
aF-3.4407517004791854
asS'rip'
p1455
(lp1456
F-3.483301952358167
aF-2.838691709151223
asS'commander'
p1457
(lp1458
F-3.006180697638505
aF-3.4407517004791854
asS'need'
p1459
(lp1460
F-3.483301952358167
aF-2.963630445759523
asS'someone'
p1461
(lp1462
F-3.483301952358167
aF-2.963630445759523
asS'audiences'
p1463
(lp1464
F-3.006180697638505
aF-2.838691709151223
asS'creepy'
p1465
(lp1466
F-2.7843319480221482
aF-3.4407517004791854
asS'exterior'
p1467
(lp1468
F-3.006180697638505
aF-3.4407517004791854
asS'beautifully'
p1469
(lp1470
F-2.7051507019745236
aF-3.4407517004791854
asS'pathology'
p1471
(lp1472
F-3.006180697638505
aF-3.4407517004791854
asS'engages'
p1473
(lp1474
F-3.006180697638505
aF-3.4407517004791854
asS'augustinian'
p1475
(lp1476
F-3.006180697638505
aF-3.4407517004791854
asS'worry'
p1477
(lp1478
F-3.006180697638505
aF-3.4407517004791854
asS'chase'
p1479
(lp1480
F-3.483301952358167
aF-2.963630445759523
asS'funny'
p1481
(lp1482
F-2.307210693302486
aF-2.662600450095542
asS'par'
p1483
(lp1484
F-3.006180697638505
aF-3.4407517004791854
asS'let'
p1485
(lp1486
F-3.483301952358167
aF-2.838691709151223
asS'breathtakingly'
p1487
(lp1488
F-3.006180697638505
aF-3.4407517004791854
asS'imax'
p1489
(lp1490
F-3.006180697638505
aF-3.4407517004791854
asS'gods'
p1491
(lp1492
F-3.006180697638505
aF-3.4407517004791854
asS'charles'
p1493
(lp1494
F-3.006180697638505
aF-3.4407517004791854
asS'things'
p1495
(lp1496
F-3.483301952358167
aF-2.7417816961431667
asS'make'
p1497
(lp1498
F-2.7843319480221482
aF-2.4407517004791854
asS'poetry'
p1499
(lp1500
F-3.006180697638505
aF-3.4407517004791854
asS'cooly'
p1501
(lp1502
F-3.006180697638505
aF-3.4407517004791854
asS'same'
p1503
(lp1504
F-3.483301952358167
aF-2.7417816961431667
asS'strange'
p1505
(lp1506
F-3.006180697638505
aF-3.4407517004791854
asS'grand'
p1507
(lp1508
F-3.483301952358167
aF-2.838691709151223
asS'several'
p1509
(lp1510
F-3.483301952358167
aF-2.963630445759523
asS'privileged'
p1511
(lp1512
F-3.006180697638505
aF-3.4407517004791854
asS'conflict'
p1513
(lp1514
F-3.006180697638505
aF-3.4407517004791854
asS'visually'
p1515
(lp1516
F-3.483301952358167
aF-2.838691709151223
asS'persona'
p1517
(lp1518
F-3.006180697638505
aF-3.4407517004791854
asS'emotionally'
p1519
(lp1520
F-3.006180697638505
aF-3.4407517004791854
asS'deft'
p1521
(lp1522
F-2.8812419610302045
aF-3.4407517004791854
asS'sequel'
p1523
(lp1524
F-3.483301952358167
aF-2.662600450095542
asS'blair'
p1525
(lp1526
F-3.483301952358167
aF-2.963630445759523
asS'chaiken'
p1527
(lp1528
F-3.006180697638505
aF-3.4407517004791854
asS'rain'
p1529
(lp1530
F-3.483301952358167
aF-2.963630445759523
asS'adventure'
p1531
(lp1532
F-3.006180697638505
aF-3.4407517004791854
asS'director'
p1533
(lp1534
F-2.6382039123439105
aF-2.5956536604649285
asS'devoid'
p1535
(lp1536
F-3.483301952358167
aF-2.838691709151223
asS'moving'
p1537
(lp1538
F-2.483301952358167
aF-3.4407517004791854
asS'preachy'
p1539
(lp1540
F-3.483301952358167
aF-2.963630445759523
asS'never'
p1541
(lp1542
F-2.5802119653662237
aF-2.4865091910398607
asS'fierce'
p1543
(lp1544
F-3.006180697638505
aF-3.4407517004791854
asS'frequently'
p1545
(lp1546
F-3.006180697638505
aF-3.4407517004791854
asS'impeccable'
p1547
(lp1548
F-3.006180697638505
aF-3.4407517004791854
asS'embarrassingly'
p1549
(lp1550
F-3.483301952358167
aF-2.963630445759523
asS'keep'
p1551
(lp1552
F-3.006180697638505
aF-3.4407517004791854
asS'prescribed'
p1553
(lp1554
F-3.483301952358167
aF-2.838691709151223
asS'characters'
p1555
(lp1556
F-2.8812419610302045
aF-2.5376617134872417
asS'off'
p1557
(lp1558
F-3.483301952358167
aF-2.3993590153209605
asS'band'
p1559
(lp1560
F-3.006180697638505
aF-3.4407517004791854
asS'itself'
p1561
(lp1562
F-3.006180697638505
aF-2.838691709151223
asS'spent'
p1563
(lp1564
F-3.483301952358167
aF-2.963630445759523
asS'theology'
p1565
(lp1566
F-3.006180697638505
aF-3.4407517004791854
asS'thought'
p1567
(lp1568
F-2.8812419610302045
aF-3.4407517004791854
asS'without'
p1569
(lp1570
F-2.483301952358167
aF-2.662600450095542
asS'boring'
p1571
(lp1572
F-3.483301952358167
aF-2.5376617134872417
asS'greatest'
p1573
(lp1574
F-3.483301952358167
aF-3.4407517004791854
asS'convenient'
p1575
(lp1576
F-3.483301952358167
aF-2.963630445759523
asS'very'
p1577
(lp1578
F-2.6382039123439105
aF-2.4407517004791854
asS'hearts'
p1579
(lp1580
F-2.7843319480221482
aF-3.4407517004791854
asS'self'
p1581
(lp1582
F-3.483301952358167
aF-2.662600450095542
asS'left'
p1583
(lp1584
F-3.483301952358167
aF-2.662600450095542
asS'summer'
p1585
(lp1586
F-2.7051507019745236
aF-2.963630445759523
asS'endeavour'
p1587
(lp1588
F-3.006180697638505
aF-3.4407517004791854
asS'less'
p1589
(lp1590
F-3.483301952358167
aF-2.5956536604649285
asS'being'
p1591
(lp1592
F-2.7843319480221482
aF-2.5376617134872417
asS'captures'
p1593
(lp1594
F-3.006180697638505
aF-3.4407517004791854
asS'ludicrous'
p1595
(lp1596
F-3.483301952358167
aF-2.963630445759523
asS'young'
p1597
(lp1598
F-3.483301952358167
aF-2.963630445759523
asS'profoundly'
p1599
(lp1600
F-2.8812419610302045
aF-3.4407517004791854
asS'sweeping'
p1601
(lp1602
F-3.006180697638505
aF-3.4407517004791854
asS'multiplex'
p1603
(lp1604
F-3.006180697638505
aF-3.4407517004791854
asS'human'
p1605
(lp1606
F-2.8812419610302045
aF-3.4407517004791854
asS'world'
p1607
(lp1608
F-2.7843319480221482
aF-3.4407517004791854
asS'touch'
p1609
(lp1610
F-3.483301952358167
aF-3.4407517004791854
asS'where'
p1611
(lp1612
F-3.483301952358167
aF-2.838691709151223
asS'punchlines'
p1613
(lp1614
F-3.483301952358167
aF-2.838691709151223
asS'yet'
p1615
(lp1616
F-3.483301952358167
aF-2.838691709151223
asS'superficial'
p1617
(lp1618
F-3.483301952358167
aF-2.838691709151223
asS'cut'
p1619
(lp1620
F-3.483301952358167
aF-2.963630445759523
asS'clueless'
p1621
(lp1622
F-3.483301952358167
aF-2.963630445759523
asS'ham'
p1623
(lp1624
F-3.483301952358167
aF-2.963630445759523
asS'shrewd'
p1625
(lp1626
F-3.483301952358167
aF-3.4407517004791854
asS'discord'
p1627
(lp1628
F-3.006180697638505
aF-3.4407517004791854
asS'had'
p1629
(lp1630
F-2.6382039123439105
aF-2.838691709151223
asS'likeable'
p1631
(lp1632
F-3.006180697638505
aF-3.4407517004791854
asS'adventurous'
p1633
(lp1634
F-3.006180697638505
aF-3.4407517004791854
asS'add'
p1635
(lp1636
F-2.8812419610302045
aF-3.4407517004791854
asS'animation'
p1637
(lp1638
F-2.8812419610302045
aF-3.4407517004791854
asS'watchable'
p1639
(lp1640
F-3.483301952358167
aF-3.4407517004791854
asS'treatment'
p1641
(lp1642
F-3.006180697638505
aF-3.4407517004791854
asS'sweet'
p1643
(lp1644
F-2.7051507019745236
aF-3.4407517004791854
asS'pitiful'
p1645
(lp1646
F-3.483301952358167
aF-2.963630445759523
asS'has'
p1647
(lp1648
F-2.228029447254861
aF-2.4865091910398607
asS'humanity'
p1649
(lp1650
F-3.006180697638505
aF-3.4407517004791854
asS'surprised'
p1651
(lp1652
F-3.006180697638505
aF-3.4407517004791854
asS'amusing'
p1653
(lp1654
F-3.006180697638505
aF-3.4407517004791854
asS'real'
p1655
(lp1656
F-2.8812419610302045
aF-2.7417816961431667
asS'unrecoverable'
p1657
(lp1658
F-3.483301952358167
aF-2.838691709151223
asS'movie'
p1659
(lp1660
F-2.1215741163405744
aF-1.7247483568443862
asS'aspects'
p1661
(lp1662
F-3.006180697638505
aF-3.4407517004791854
asS'captivating'
p1663
(lp1664
F-2.8812419610302045
aF-3.4407517004791854
asS'spectacular'
p1665
(lp1666
F-3.006180697638505
aF-3.4407517004791854
asS'ops'
p1667
(lp1668
F-3.483301952358167
aF-2.963630445759523
asS'read'
p1669
(lp1670
F-3.006180697638505
aF-3.4407517004791854
asS'big'
p1671
(lp1672
F-3.006180697638505
aF-3.4407517004791854
asS'possible'
p1673
(lp1674
F-3.483301952358167
aF-2.963630445759523
asS'auspicious'
p1675
(lp1676
F-3.006180697638505
aF-3.4407517004791854
asS'cultural'
p1677
(lp1678
F-2.8812419610302045
aF-3.4407517004791854
asS'formulaic'
p1679
(lp1680
F-3.483301952358167
aF-2.963630445759523
asS'know'
p1681
(lp1682
F-3.483301952358167
aF-2.838691709151223
asS'background'
p1683
(lp1684
F-3.006180697638505
aF-3.4407517004791854
asS'damage'
p1685
(lp1686
F-3.483301952358167
aF-2.963630445759523
asS'grim'
p1687
(lp1688
F-3.006180697638505
aF-3.4407517004791854
asS'dreams'
p1689
(lp1690
F-3.006180697638505
aF-3.4407517004791854
asS'apart'
p1691
(lp1692
F-3.483301952358167
aF-2.963630445759523
asS'stuff'
p1693
(lp1694
F-3.006180697638505
aF-3.4407517004791854
asS'necessary'
p1695
(lp1696
F-3.483301952358167
aF-2.963630445759523
asS'like'
p1697
(lp1698
F-2.483301952358167
aF-2.0983290196569793
asS'obvious'
p1699
(lp1700
F-3.483301952358167
aF-2.7417816961431667
asS'lacking'
p1701
(lp1702
F-3.483301952358167
aF-2.963630445759523
asS'loses'
p1703
(lp1704
F-3.483301952358167
aF-2.838691709151223
asS'raffish'
p1705
(lp1706
F-3.006180697638505
aF-3.4407517004791854
asS'celluloid'
p1707
(lp1708
F-3.483301952358167
aF-2.838691709151223
asS'recycled'
p1709
(lp1710
F-3.483301952358167
aF-2.963630445759523
asS'nose'
p1711
(lp1712
F-3.483301952358167
aF-2.963630445759523
asS'night'
p1713
(lp1714
F-3.006180697638505
aF-3.4407517004791854
asS'chick'
p1715
(lp1716
F-3.006180697638505
aF-3.4407517004791854
asS'works'
p1717
(lp1718
F-3.006180697638505
aF-3.4407517004791854
asS'unabashedly'
p1719
(lp1720
F-3.006180697638505
aF-3.4407517004791854
asS'right'
p1721
(lp1722
F-2.8812419610302045
aF-2.838691709151223
asS'old'
p1723
(lp1724
F-3.483301952358167
aF-2.5376617134872417
asS'crafted'
p1725
(lp1726
F-2.6382039123439105
aF-3.4407517004791854
asS'obsessions'
p1727
(lp1728
F-3.006180697638505
aF-3.4407517004791854
asS'people'
p1729
(lp1730
F-2.8812419610302045
aF-2.5376617134872417
asS'absolutely'
p1731
(lp1732
F-3.006180697638505
aF-3.4407517004791854
asS'footage'
p1733
(lp1734
F-3.006180697638505
aF-3.4407517004791854
asS'creation'
p1735
(lp1736
F-3.006180697638505
aF-3.4407517004791854
asS'play'
p1737
(lp1738
F-3.483301952358167
aF-2.963630445759523
asS'meara'
p1739
(lp1740
F-3.006180697638505
aF-3.4407517004791854
asS'recovery'
p1741
(lp1742
F-3.006180697638505
aF-3.4407517004791854
asS'images'
p1743
(lp1744
F-3.006180697638505
aF-3.4407517004791854
asS'bore'
p1745
(lp1746
F-3.483301952358167
aF-2.963630445759523
asS'oddly'
p1747
(lp1748
F-3.006180697638505
aF-3.4407517004791854
asS'ourselves'
p1749
(lp1750
F-3.006180697638505
aF-3.4407517004791854
asS'slice'
p1751
(lp1752
F-3.006180697638505
aF-3.4407517004791854
asS'unfunny'
p1753
(lp1754
F-3.483301952358167
aF-2.5956536604649285
asS'theater'
p1755
(lp1756
F-3.483301952358167
aF-2.963630445759523
asS'riveting'
p1757
(lp1758
F-2.8812419610302045
aF-3.4407517004791854
asS'phenomenal'
p1759
(lp1760
F-3.006180697638505
aF-3.4407517004791854
asS'audience'
p1761
(lp1762
F-2.7843319480221482
aF-2.7417816961431667
asS'best'
p1763
(lp1764
F-2.4041207063105423
aF-3.4407517004791854
asS'witty'
p1765
(lp1766
F-2.7843319480221482
aF-3.4407517004791854
asS'snappy'
p1767
(lp1768
F-3.006180697638505
aF-3.4407517004791854
asS'rewarding'
p1769
(lp1770
F-3.006180697638505
aF-3.4407517004791854
asS'behave'
p1771
(lp1772
F-3.483301952358167
aF-2.963630445759523
asS'provoking'
p1773
(lp1774
F-3.006180697638505
aF-3.4407517004791854
asS'ethos'
p1775
(lp1776
F-3.006180697638505
aF-3.4407517004791854
asS'epic'
p1777
(lp1778
F-2.8812419610302045
aF-3.4407517004791854
asS'resolutely'
p1779
(lp1780
F-3.483301952358167
aF-2.838691709151223
asS'core'
p1781
(lp1782
F-3.483301952358167
aF-2.7417816961431667
asS'noise'
p1783
(lp1784
F-3.483301952358167
aF-2.963630445759523
asS'run'
p1785
(lp1786
F-3.483301952358167
aF-2.963630445759523
asS'idealistic'
p1787
(lp1788
F-3.006180697638505
aF-3.4407517004791854
asS'seconds'
p1789
(lp1790
F-3.483301952358167
aF-2.838691709151223
asS'rock'
p1791
(lp1792
F-3.483301952358167
aF-2.7417816961431667
asS'lilo'
p1793
(lp1794
F-3.006180697638505
aF-3.4407517004791854
asS'credits'
p1795
(lp1796
F-2.8812419610302045
aF-2.963630445759523
asS'step'
p1797
(lp1798
F-3.483301952358167
aF-2.963630445759523
asS'cinematic'
p1799
(lp1800
F-2.8812419610302045
aF-2.963630445759523
asS'innocence'
p1801
(lp1802
F-3.006180697638505
aF-3.4407517004791854
asS'losing'
p1803
(lp1804
F-3.006180697638505
aF-2.838691709151223
asS'memorable'
p1805
(lp1806
F-2.7051507019745236
aF-3.4407517004791854
asS'willies'
p1807
(lp1808
F-2.7843319480221482
aF-3.4407517004791854
asS'intense'
p1809
(lp1810
F-3.006180697638505
aF-3.4407517004791854
asS'between'
p1811
(lp1812
F-3.483301952358167
aF-2.7417816961431667
asS'takes'
p1813
(lp1814
F-3.483301952358167
aF-2.963630445759523
asS'stone'
p1815
(lp1816
F-3.006180697638505
aF-3.4407517004791854
asS'goods'
p1817
(lp1818
F-2.8812419610302045
aF-3.4407517004791854
asS'campfire'
p1819
(lp1820
F-2.7843319480221482
aF-3.4407517004791854
asS'anything'
p1821
(lp1822
F-3.483301952358167
aF-2.5956536604649285
asS'getting'
p1823
(lp1824
F-3.483301952358167
aF-2.963630445759523
asS'surrender'
p1825
(lp1826
F-3.483301952358167
aF-2.838691709151223
asS'nonexistent'
p1827
(lp1828
F-3.483301952358167
aF-2.963630445759523
asS'remains'
p1829
(lp1830
F-2.8812419610302045
aF-3.4407517004791854
asS'rhythms'
p1831
(lp1832
F-3.483301952358167
aF-2.838691709151223
asS'stand'
p1833
(lp1834
F-3.483301952358167
aF-2.838691709151223
asS'act'
p1835
(lp1836
F-3.483301952358167
aF-2.963630445759523
asS'documentary'
p1837
(lp1838
F-2.529059442918842
aF-3.4407517004791854
asS'book'
p1839
(lp1840
F-3.006180697638505
aF-3.4407517004791854
asS'clams'
p1841
(lp1842
F-3.483301952358167
aF-2.838691709151223
asS'seeing'
p1843
(lp1844
F-2.7051507019745236
aF-3.4407517004791854
asS'own'
p1845
(lp1846
F-3.483301952358167
aF-2.662600450095542
asS'incoherence'
p1847
(lp1848
F-3.483301952358167
aF-2.838691709151223
asS'romantic'
p1849
(lp1850
F-2.6382039123439105
aF-3.4407517004791854
asS'creativity'
p1851
(lp1852
F-3.006180697638505
aF-3.4407517004791854
asS'vulgarity'
p1853
(lp1854
F-3.006180697638505
aF-3.4407517004791854
asS'good'
p1855
(lp1856
F-2.307210693302486
aF-2.4865091910398607
asS'litmus'
p1857
(lp1858
F-3.483301952358167
aF-2.963630445759523
asS'down'
p1859
(lp1860
F-2.7843319480221482
aF-2.5956536604649285
asS'finely'
p1861
(lp1862
F-3.006180697638505
aF-3.4407517004791854
asS'lively'
p1863
(lp1864
F-3.006180697638505
aF-3.4407517004791854
asS'female'
p1865
(lp1866
F-2.7051507019745236
aF-3.4407517004791854
asS'cultivated'
p1867
(lp1868
F-3.006180697638505
aF-3.4407517004791854
asS'awful'
p1869
(lp1870
F-3.483301952358167
aF-2.963630445759523
asS'lovely'
p1871
(lp1872
F-3.006180697638505
aF-3.4407517004791854
asS'shoots'
p1873
(lp1874
F-3.006180697638505
aF-3.4407517004791854
asS'sports'
p1875
(lp1876
F-3.483301952358167
aF-2.963630445759523
asS'pointless'
p1877
(lp1878
F-3.483301952358167
aF-2.838691709151223
asS'embrace'
p1879
(lp1880
F-3.006180697638505
aF-3.4407517004791854
asS'often'
p1881
(lp1882
F-2.8812419610302045
aF-2.963630445759523
asS'existed'
p1883
(lp1884
F-3.006180697638505
aF-3.4407517004791854
asS'art'
p1885
(lp1886
F-3.483301952358167
aF-2.963630445759523
asS'fast'
p1887
(lp1888
F-3.006180697638505
aF-3.4407517004791854
asS'deception'
p1889
(lp1890
F-3.006180697638505
aF-3.4407517004791854
asS'beneath'
p1891
(lp1892
F-3.006180697638505
aF-3.4407517004791854
asS'rushed'
p1893
(lp1894
F-3.483301952358167
aF-2.963630445759523
asS'amazingly'
p1895
(lp1896
F-3.006180697638505
aF-3.4407517004791854
asS'baked'
p1897
(lp1898
F-3.483301952358167
aF-2.963630445759523
asS'talent'
p1899
(lp1900
F-3.006180697638505
aF-3.4407517004791854
asS'specifically'
p1901
(lp1902
F-3.006180697638505
aF-3.4407517004791854
asS'class'
p1903
(lp1904
F-2.8812419610302045
aF-3.4407517004791854
asS'indoor'
p1905
(lp1906
F-3.006180697638505
aF-3.4407517004791854
asS'stuck'
p1907
(lp1908
F-3.006180697638505
aF-3.4407517004791854
asS'low'
p1909
(lp1910
F-3.483301952358167
aF-2.838691709151223
asS'lot'
p1911
(lp1912
F-3.483301952358167
aF-2.838691709151223
asS'biggest'
p1913
(lp1914
F-3.483301952358167
aF-2.838691709151223
asS'music'
p1915
(lp1916
F-2.7051507019745236
aF-3.4407517004791854
asS'exceptional'
p1917
(lp1918
F-2.7843319480221482
aF-3.4407517004791854
asS'bored'
p1919
(lp1920
F-3.006180697638505
aF-2.963630445759523
asS'happy'
p1921
(lp1922
F-3.006180697638505
aF-3.4407517004791854
asS'hookers'
p1923
(lp1924
F-3.006180697638505
aF-3.4407517004791854
asS'head'
p1925
(lp1926
F-3.483301952358167
aF-2.7417816961431667
asS'stooping'
p1927
(lp1928
F-3.006180697638505
aF-3.4407517004791854
asS'complete'
p1929
(lp1930
F-3.483301952358167
aF-2.7417816961431667
asS'enough'
p1931
(lp1932
F-2.7843319480221482
aF-2.5956536604649285
asS'fundamentals'
p1933
(lp1934
F-3.006180697638505
aF-3.4407517004791854
asS'directing'
p1935
(lp1936
F-3.006180697638505
aF-3.4407517004791854
asS'editing'
p1937
(lp1938
F-3.483301952358167
aF-2.7417816961431667
asS'gorgeous'
p1939
(lp1940
F-3.006180697638505
aF-3.4407517004791854
asS'idea'
p1941
(lp1942
F-2.8812419610302045
aF-2.662600450095542
asS'scouse'
p1943
(lp1944
F-3.483301952358167
aF-2.963630445759523
asS'failure'
p1945
(lp1946
F-3.483301952358167
aF-2.7417816961431667
asS'talents'
p1947
(lp1948
F-3.483301952358167
aF-2.838691709151223
asS'manipulative'
p1949
(lp1950
F-3.483301952358167
aF-2.963630445759523
asS'game'
p1951
(lp1952
F-2.8812419610302045
aF-3.4407517004791854
asS'hopes'
p1953
(lp1954
F-3.483301952358167
aF-2.963630445759523
asS'coldest'
p1955
(lp1956
F-3.006180697638505
aF-3.4407517004791854
asS'line'
p1957
(lp1958
F-3.006180697638505
aF-3.4407517004791854
asS'trying'
p1959
(lp1960
F-3.483301952358167
aF-2.963630445759523
asS'dull'
p1961
(lp1962
F-3.483301952358167
aF-2.963630445759523
asS'decades'
p1963
(lp1964
F-3.006180697638505
aF-3.4407517004791854
asS'waste'
p1965
(lp1966
F-3.483301952358167
aF-2.963630445759523
asS'wretchedly'
p1967
(lp1968
F-3.483301952358167
aF-2.963630445759523
asS'society'
p1969
(lp1970
F-3.006180697638505
aF-3.4407517004791854
asS'heartwarming'
p1971
(lp1972
F-3.006180697638505
aF-3.4407517004791854
asS'inane'
p1973
(lp1974
F-3.483301952358167
aF-2.963630445759523
asS'tell'
p1975
(lp1976
F-3.483301952358167
aF-2.963630445759523
asS'garbage'
p1977
(lp1978
F-3.483301952358167
aF-2.963630445759523
asS'exploration'
p1979
(lp1980
F-3.006180697638505
aF-3.4407517004791854
asS'charmer'
p1981
(lp1982
F-3.006180697638505
aF-3.4407517004791854
asS'emotional'
p1983
(lp1984
F-2.6382039123439105
aF-2.838691709151223
asS'problem'
p1985
(lp1986
F-3.483301952358167
aF-2.963630445759523
asS'piece'
p1987
(lp1988
F-3.006180697638505
aF-2.963630445759523
asS'similar'
p1989
(lp1990
F-3.006180697638505
aF-3.4407517004791854
asS'clear'
p1991
(lp1992
F-3.483301952358167
aF-2.963630445759523
asS'penetrating'
p1993
(lp1994
F-3.006180697638505
aF-3.4407517004791854
asS'proud'
p1995
(lp1996
F-3.006180697638505
aF-3.4407517004791854
asS'constant'
p1997
(lp1998
F-3.006180697638505
aF-3.4407517004791854
asS'adults'
p1999
(lp2000
F-3.483301952358167
aF-2.963630445759523
asS'cinema'
p2001
(lp2002
F-3.483301952358167
aF-2.963630445759523
asS'taste'
p2003
(lp2004
F-3.006180697638505
aF-3.4407517004791854
asS'minutes'
p2005
(lp2006
F-3.006180697638505
aF-2.264660441423504
asS'accents'
p2007
(lp2008
F-3.483301952358167
aF-2.838691709151223
asS'mike'
p2009
(lp2010
F-3.006180697638505
aF-3.4407517004791854
asS'covers'
p2011
(lp2012
F-3.006180697638505
aF-3.4407517004791854
asS'imagination'
p2013
(lp2014
F-3.006180697638505
aF-2.838691709151223
asS'single'
p2015
(lp2016
F-3.483301952358167
aF-2.963630445759523
asS'proves'
p2017
(lp2018
F-2.7843319480221482
aF-3.4407517004791854
asS'walked'
p2019
(lp2020
F-3.483301952358167
aF-2.838691709151223
asS'believable'
p2021
(lp2022
F-3.006180697638505
aF-3.4407517004791854
asS'evocative'
p2023
(lp2024
F-3.006180697638505
aF-3.4407517004791854
asS'tremble'
p2025
(lp2026
F-3.006180697638505
aF-3.4407517004791854
asS'liking'
p2027
(lp2028
F-3.006180697638505
aF-3.4407517004791854
asS'film'
p2029
(lp2030
F-1.915100228291172
aF-2.079023864461593
asS'constructed'
p2031
(lp2032
F-3.006180697638505
aF-3.4407517004791854
asS'tedious'
p2033
(lp2034
F-3.483301952358167
aF-2.838691709151223
asS'again'
p2035
(lp2036
F-3.483301952358167
aF-2.838691709151223
asS'spell'
p2037
(lp2038
F-3.006180697638505
aF-3.4407517004791854
asS'faithful'
p2039
(lp2040
F-3.006180697638505
aF-3.4407517004791854
asS'eerie'
p2041
(lp2042
F-2.8812419610302045
aF-3.4407517004791854
asS'meaningless'
p2043
(lp2044
F-3.483301952358167
aF-2.838691709151223
asS'pat'
p2045
(lp2046
F-3.006180697638505
aF-3.4407517004791854
asS'offensive'
p2047
(lp2048
F-3.483301952358167
aF-2.963630445759523
asS'detail'
p2049
(lp2050
F-2.7843319480221482
aF-3.4407517004791854
asS'handed'
p2051
(lp2052
F-3.006180697638505
aF-3.4407517004791854
asS'intellect'
p2053
(lp2054
F-3.006180697638505
aF-3.4407517004791854
asS'cinematography'
p2055
(lp2056
F-3.483301952358167
aF-3.4407517004791854
asS'comedic'
p2057
(lp2058
F-3.006180697638505
aF-2.963630445759523
asS'actors'
p2059
(lp2060
F-2.7051507019745236
aF-3.4407517004791854
asS'becomes'
p2061
(lp2062
F-3.483301952358167
aF-2.963630445759523
asS'test'
p2063
(lp2064
F-3.483301952358167
aF-2.7417816961431667
asS'incredibly'
p2065
(lp2066
F-2.8812419610302045
aF-3.4407517004791854
asS'roll'
p2067
(lp2068
F-2.8812419610302045
aF-3.4407517004791854
asS'reckless'
p2069
(lp2070
F-3.483301952358167
aF-2.963630445759523
asS'poor'
p2071
(lp2072
F-3.483301952358167
aF-2.963630445759523
asS'picture'
p2073
(lp2074
F-2.8812419610302045
aF-2.7417816961431667
asS'draw'
p2075
(lp2076
F-3.006180697638505
aF-3.4407517004791854
asS'energetic'
p2077
(lp2078
F-3.006180697638505
aF-3.4407517004791854
asS'separate'
p2079
(lp2080
F-3.006180697638505
aF-3.4407517004791854
asS'welcome'
p2081
(lp2082
F-3.483301952358167
aF-3.4407517004791854
asS'problems'
p2083
(lp2084
F-3.483301952358167
aF-2.838691709151223
asS'important'
p2085
(lp2086
F-3.006180697638505
aF-3.4407517004791854
asS'utterly'
p2087
(lp2088
F-3.483301952358167
aF-2.963630445759523
asS'scores'
p2089
(lp2090
F-3.006180697638505
aF-3.4407517004791854
asS'dullest'
p2091
(lp2092
F-3.483301952358167
aF-2.963630445759523
asS'mamet'
p2093
(lp2094
F-3.006180697638505
aF-3.4407517004791854
asS'timing'
p2095
(lp2096
F-3.006180697638505
aF-3.4407517004791854
asS'aragorn'
p2097
(lp2098
F-3.006180697638505
aF-3.4407517004791854
asS'desert'
p2099
(lp2100
F-3.483301952358167
aF-2.963630445759523
asS'psychology'
p2101
(lp2102
F-3.006180697638505
aF-3.4407517004791854
asS'ago'
p2103
(lp2104
F-2.8812419610302045
aF-3.4407517004791854
asS'lane'
p2105
(lp2106
F-3.006180697638505
aF-3.4407517004791854
asS'suffers'
p2107
(lp2108
F-3.483301952358167
aF-2.963630445759523
asS'builds'
p2109
(lp2110
F-2.8812419610302045
aF-3.4407517004791854
asS'stunt'
p2111
(lp2112
F-3.483301952358167
aF-2.963630445759523
asS'examination'
p2113
(lp2114
F-3.006180697638505
aF-3.4407517004791854
asS'ranks'
p2115
(lp2116
F-3.006180697638505
aF-3.4407517004791854
asS'values'
p2117
(lp2118
F-3.483301952358167
aF-2.963630445759523
asS'age'
p2119
(lp2120
F-3.006180697638505
aF-3.4407517004791854
asS'entertainment'
p2121
(lp2122
F-3.483301952358167
aF-2.838691709151223
asS'holes'
p2123
(lp2124
F-3.483301952358167
aF-2.963630445759523
asS'pseudo'
p2125
(lp2126
F-3.483301952358167
aF-2.963630445759523
asS'together'
p2127
(lp2128
F-3.006180697638505
aF-2.7417816961431667
asS'having'
p2129
(lp2130
F-3.483301952358167
aF-2.963630445759523
asS'cohesion'
p2131
(lp2132
F-3.483301952358167
aF-2.963630445759523
asS'directors'
p2133
(lp2134
F-3.006180697638505
aF-3.4407517004791854
asS'dramatic'
p2135
(lp2136
F-2.7051507019745236
aF-3.4407517004791854
asS'hugely'
p2137
(lp2138
F-2.8812419610302045
aF-3.4407517004791854
asS'time'
p2139
(lp2140
F-2.7051507019745236
aF-2.4865091910398607
asS'serious'
p2141
(lp2142
F-3.006180697638505
aF-2.838691709151223
asS'backward'
p2143
(lp2144
F-3.483301952358167
aF-2.963630445759523
asS'inc'
p2145
(lp2146
F-3.483301952358167
aF-2.963630445759523
asS'original'
p2147
(lp2148
F-2.7051507019745236
aF-2.7417816961431667
asS'paced'
p2149
(lp2150
F-3.483301952358167
aF-2.838691709151223
asS'once'
p2151
(lp2152
F-3.006180697638505
aF-3.4407517004791854
as.