(dp0
S'breadth'
p1
(lp2
F-3.433289685195026
aF-3.141136090120739
asS'concept'
p3
(lp4
F-2.9561684304753633
aF-3.44216608578472
asS'forget'
p5
(lp6
F-3.433289685195026
aF-3.141136090120739
asS'remarkable'
p7
(lp8
F-3.433289685195026
aF-2.9650448310650575
asS'skip'
p9
(lp10
F-3.1322596895310446
aF-3.44216608578472
asS'lack'
p11
(lp12
F-2.9561684304753633
aF-3.44216608578472
asS'atmosphere'
p13
(lp14
F-3.433289685195026
aF-2.9650448310650575
asS'suspenseful'
p15
(lp16
F-3.433289685195026
aF-2.9650448310650575
asS'four'
p17
(lp18
F-3.1322596895310446
aF-3.141136090120739
asS'manages'
p19
(lp20
F-3.1322596895310446
aF-3.44216608578472
asS'battle'
p21
(lp22
F-3.433289685195026
aF-3.141136090120739
asS'follow'
p23
(lp24
F-3.433289685195026
aF-3.141136090120739
asS'remarkably'
p25
(lp26
F-3.433289685195026
aF-2.8401060944567575
asS'children'
p27
(lp28
F-3.1322596895310446
aF-3.44216608578472
asS'poorly'
p29
(lp30
F-2.588191645180769
aF-3.44216608578472
asS'idealism'
p31
(lp32
F-3.433289685195026
aF-3.141136090120739
asS'certainly'
p33
(lp34
F-3.433289685195026
aF-2.9650448310650575
asS'fellowship'
p35
(lp36
F-3.433289685195026
aF-3.141136090120739
asS'concerned'
p37
(lp38
F-3.433289685195026
aF-3.44216608578472
asS'acting'
p39
(lp40
F-2.734319680859007
aF-2.8401060944567575
asS'originality'
p41
(lp42
F-3.433289685195026
aF-3.141136090120739
asS'amaze'
p43
(lp44
F-3.433289685195026
aF-3.141136090120739
asS'finally'
p45
(lp46
F-3.433289685195026
aF-3.141136090120739
asS'does'
p47
(lp48
F-2.3193463328881894
aF-2.664014835401076
asS'th'
p49
(lp50
F-3.1322596895310446
aF-3.44216608578472
asS'pace'
p51
(lp52
F-3.433289685195026
aF-3.141136090120739
asS'ridiculousness'
p53
(lp54
F-3.1322596895310446
aF-3.44216608578472
asS'pleasing'
p55
(lp56
F-3.433289685195026
aF-3.141136090120739
asS'worth'
p57
(lp58
F-2.8312296938670634
aF-2.9650448310650575
asS'lrb'
p59
(lp60
F-2.6551384348113825
aF-2.664014835401076
asS'worse'
p61
(lp62
F-2.6551384348113825
aF-3.44216608578472
asS'made'
p63
(lp64
F-2.433289685195026
aF-2.8401060944567575
asS'sitting'
p65
(lp66
F-3.433289685195026
aF-2.8401060944567575
asS'compassion'
p67
(lp68
F-3.433289685195026
aF-3.141136090120739
asS'slickest'
p69
(lp70
F-3.433289685195026
aF-3.141136090120739
asS'screenwriting'
p71
(lp72
F-3.1322596895310446
aF-3.44216608578472
asS'every'
p73
(lp74
F-2.734319680859007
aF-3.44216608578472
asS'formula'
p75
(lp76
F-3.1322596895310446
aF-3.44216608578472
asS'frailty'
p77
(lp78
F-3.433289685195026
aF-2.8401060944567575
asS'tiresome'
p79
(lp80
F-3.1322596895310446
aF-3.44216608578472
asS'minute'
p81
(lp82
F-2.6551384348113825
aF-3.44216608578472
asS'margarita'
p83
(lp84
F-3.433289685195026
aF-3.141136090120739
asS'enjoyable'
p85
(lp86
F-3.433289685195026
aF-3.141136090120739
asS'school'
p87
(lp88
F-3.1322596895310446
aF-3.141136090120739
asS'heaven'
p89
(lp90
F-3.433289685195026
aF-3.141136090120739
asS'impressive'
p91
(lp92
F-3.433289685195026
aF-2.9650448310650575
asS'stiff'
p93
(lp94
F-3.1322596895310446
aF-3.44216608578472
asS'benevolent'
p95
(lp96
F-3.433289685195026
aF-3.141136090120739
asS'shock'
p97
(lp98
F-3.433289685195026
aF-2.9650448310650575
asS'leave'
p99
(lp100
F-3.433289685195026
aF-3.44216608578472
asS'solid'
p101
(lp102
F-3.433289685195026
aF-2.9650448310650575
asS'sand'
p103
(lp104
F-3.433289685195026
aF-3.141136090120739
asS'engrossing'
p105
(lp106
F-3.433289685195026
aF-2.8401060944567575
asS'pootie'
p107
(lp108
F-3.1322596895310446
aF-3.44216608578472
asS'small'
p109
(lp110
F-3.433289685195026
aF-3.141136090120739
asS'delightfully'
p111
(lp112
F-3.433289685195026
aF-3.141136090120739
asS'guy'
p113
(lp114
F-2.9561684304753633
aF-3.44216608578472
asS'triumph'
p115
(lp116
F-3.433289685195026
aF-3.141136090120739
asS'enjoy'
p117
(lp118
F-3.1322596895310446
aF-3.44216608578472
asS'upper'
p119
(lp120
F-3.433289685195026
aF-2.9650448310650575
asS'spiritual'
p121
(lp122
F-3.433289685195026
aF-3.141136090120739
asS'blade'
p123
(lp124
F-3.1322596895310446
aF-3.44216608578472
asS'gripping'
p125
(lp126
F-3.433289685195026
aF-3.141136090120739
asS'tired'
p127
(lp128
F-3.1322596895310446
aF-3.44216608578472
asS'visuals'
p129
(lp130
F-3.433289685195026
aF-3.141136090120739
asS'uncomfortably'
p131
(lp132
F-3.1322596895310446
aF-3.44216608578472
asS'rrb'
p133
(lp134
F-2.6551384348113825
aF-2.664014835401076
asS'whimsical'
p135
(lp136
F-3.433289685195026
aF-3.141136090120739
asS'arwen'
p137
(lp138
F-3.433289685195026
aF-3.141136090120739
asS'elegant'
p139
(lp140
F-3.433289685195026
aF-3.141136090120739
asS'erotic'
p141
(lp142
F-3.1322596895310446
aF-3.44216608578472
asS'video'
p143
(lp144
F-2.9561684304753633
aF-3.44216608578472
asS'neo'
p145
(lp146
F-3.433289685195026
aF-3.141136090120739
asS'cast'
p147
(lp148
F-3.433289685195026
aF-2.7431960814487013
asS'sun'
p149
(lp150
F-2.9561684304753633
aF-3.44216608578472
asS'sides'
p151
(lp152
F-3.433289685195026
aF-3.141136090120739
asS'emotions'
p153
(lp154
F-3.433289685195026
aF-3.141136090120739
asS'stoop'
p155
(lp156
F-2.9561684304753633
aF-3.44216608578472
asS'consistently'
p157
(lp158
F-3.433289685195026
aF-2.8401060944567575
asS'rotten'
p159
(lp160
F-3.1322596895310446
aF-3.44216608578472
asS'version'
p161
(lp162
F-2.9561684304753633
aF-3.44216608578472
asS'goes'
p163
(lp164
F-2.9561684304753633
aF-3.44216608578472
asS'new'
p165
(lp166
F-2.9561684304753633
aF-2.8401060944567575
asS'ever'
p167
(lp168
F-2.9561684304753633
aF-3.44216608578472
asS'exercise'
p169
(lp170
F-2.9561684304753633
aF-3.141136090120739
asS'told'
p171
(lp172
F-3.433289685195026
aF-3.141136090120739
asS'edited'
p173
(lp174
F-3.433289685195026
aF-3.141136090120739
asS'full'
p175
(lp176
F-2.8312296938670634
aF-2.8401060944567575
asS'christian'
p177
(lp178
F-3.433289685195026
aF-3.141136090120739
asS'mel'
p179
(lp180
F-3.433289685195026
aF-3.141136090120739
asS'men'
p181
(lp182
F-3.433289685195026
aF-2.9650448310650575
asS'inspiring'
p183
(lp184
F-3.433289685195026
aF-3.141136090120739
asS'here'
p185
(lp186
F-2.734319680859007
aF-3.44216608578472
asS'delivering'
p187
(lp188
F-3.433289685195026
aF-3.141136090120739
asS'hours'
p189
(lp190
F-2.9561684304753633
aF-3.44216608578472
asS'entertain'
p191
(lp192
F-3.433289685195026
aF-3.141136090120739
asS'let'
p193
(lp194
F-2.9561684304753633
aF-3.44216608578472
asS'unrewarding'
p195
(lp196
F-3.1322596895310446
aF-3.44216608578472
asS'alone'
p197
(lp198
F-3.1322596895310446
aF-3.44216608578472
asS'suckers'
p199
(lp200
F-3.1322596895310446
aF-3.44216608578472
asS'strong'
p201
(lp202
F-3.433289685195026
aF-3.44216608578472
asS'fifteen'
p203
(lp204
F-3.1322596895310446
aF-3.44216608578472
asS'irritating'
p205
(lp206
F-3.1322596895310446
aF-3.44216608578472
asS'change'
p207
(lp208
F-3.1322596895310446
aF-3.44216608578472
asS'extreme'
p209
(lp210
F-2.9561684304753633
aF-3.44216608578472
asS'dry'
p211
(lp212
F-3.433289685195026
aF-3.141136090120739
asS'buck'
p213
(lp214
F-3.1322596895310446
aF-3.44216608578472
asS'great'
p215
(lp216
F-3.433289685195026
aF-2.238046103128795
asS'substance'
p217
(lp218
F-3.1322596895310446
aF-3.44216608578472
asS'standout'
p219
(lp220
F-3.433289685195026
aF-3.141136090120739
asS'uplifting'
p221
(lp222
F-3.433289685195026
aF-3.141136090120739
asS'hideously'
p223
(lp224
F-3.433289685195026
aF-3.141136090120739
asS'brilliant'
p225
(lp226
F-3.433289685195026
aF-2.5390760987927763
asS'involved'
p227
(lp228
F-3.1322596895310446
aF-3.44216608578472
asS'exceptionally'
p229
(lp230
F-3.433289685195026
aF-3.141136090120739
asS'completely'
p231
(lp232
F-3.433289685195026
aF-3.44216608578472
asS'experience'
p233
(lp234
F-2.9561684304753633
aF-2.664014835401076
asS'bittersweet'
p235
(lp236
F-3.433289685195026
aF-2.8401060944567575
asS'women'
p237
(lp238
F-3.433289685195026
aF-3.141136090120739
asS'pitfalls'
p239
(lp240
F-2.9561684304753633
aF-3.44216608578472
asS'action'
p241
(lp242
F-2.479047175755701
aF-3.44216608578472
asS'deserves'
p243
(lp244
F-3.1322596895310446
aF-3.44216608578472
asS'makes'
p245
(lp246
F-3.433289685195026
aF-3.44216608578472
asS'grandkids'
p247
(lp248
F-3.433289685195026
aF-3.141136090120739
asS'control'
p249
(lp250
F-2.9561684304753633
aF-3.44216608578472
asS'breathtaking'
p251
(lp252
F-3.433289685195026
aF-3.141136090120739
asS'love'
p253
(lp254
F-3.433289685195026
aF-2.8401060944567575
asS'family'
p255
(lp256
F-3.433289685195026
aF-2.597068045770463
asS'spy'
p257
(lp258
F-3.433289685195026
aF-2.8401060944567575
asS'worthy'
p259
(lp260
F-3.1322596895310446
aF-3.141136090120739
asS'highly'
p261
(lp262
F-3.433289685195026
aF-2.8401060944567575
asS'psychological'
p263
(lp264
F-3.433289685195026
aF-3.44216608578472
asS'patience'
p265
(lp266
F-3.1322596895310446
aF-3.44216608578472
asS'wit'
p267
(lp268
F-3.433289685195026
aF-2.8401060944567575
asS'aimed'
p269
(lp270
F-3.433289685195026
aF-3.141136090120739
asS'resolutions'
p271
(lp272
F-3.1322596895310446
aF-3.44216608578472
asS'should'
p273
(lp274
F-3.1322596895310446
aF-3.141136090120739
asS'around'
p275
(lp276
F-2.8312296938670634
aF-2.4879235763453953
asS'plot'
p277
(lp278
F-2.433289685195026
aF-3.44216608578472
asS'crap'
p279
(lp280
F-2.8312296938670634
aF-3.44216608578472
asS'vivid'
p281
(lp282
F-3.433289685195026
aF-3.141136090120739
asS'might'
p283
(lp284
F-2.588191645180769
aF-2.8401060944567575
asS'sake'
p285
(lp286
F-3.1322596895310446
aF-3.44216608578472
asS'forcefully'
p287
(lp288
F-3.433289685195026
aF-3.141136090120739
asS'france'
p289
(lp290
F-3.433289685195026
aF-3.141136090120739
asS'few'
p291
(lp292
F-3.1322596895310446
aF-3.44216608578472
asS'music'
p293
(lp294
F-3.433289685195026
aF-2.7431960814487013
asS'wondering'
p295
(lp296
F-3.433289685195026
aF-3.44216608578472
asS'memory'
p297
(lp298
F-3.433289685195026
aF-3.44216608578472
asS'films'
p299
(lp300
F-2.734319680859007
aF-3.141136090120739
asS'themselves'
p301
(lp302
F-3.433289685195026
aF-3.141136090120739
asS'harrowing'
p303
(lp304
F-3.433289685195026
aF-3.141136090120739
asS'until'
p305
(lp306
F-3.433289685195026
aF-3.141136090120739
asS'more'
p307
(lp308
F-2.17801718009172
aF-2.7431960814487013
asS'flat'
p309
(lp310
F-2.9561684304753633
aF-3.141136090120739
asS'clever'
p311
(lp312
F-3.433289685195026
aF-2.9650448310650575
asS'knows'
p313
(lp314
F-3.433289685195026
aF-3.44216608578472
asS'scary'
p315
(lp316
F-3.1322596895310446
aF-3.44216608578472
asS'successful'
p317
(lp318
F-3.433289685195026
aF-3.141136090120739
asS'oscar'
p319
(lp320
F-3.433289685195026
aF-3.141136090120739
asS'company'
p321
(lp322
F-3.1322596895310446
aF-3.44216608578472
asS'charming'
p323
(lp324
F-3.433289685195026
aF-3.141136090120739
asS'excuse'
p325
(lp326
F-3.433289685195026
aF-3.141136090120739
asS'visual'
p327
(lp328
F-3.433289685195026
aF-2.9650448310650575
asS'sobering'
p329
(lp330
F-3.433289685195026
aF-3.141136090120739
asS'surface'
p331
(lp332
F-3.1322596895310446
aF-3.44216608578472
asS'known'
p333
(lp334
F-3.433289685195026
aF-3.141136090120739
asS'hole'
p335
(lp336
F-3.1322596895310446
aF-3.44216608578472
asS'must'
p337
(lp338
F-3.433289685195026
aF-3.141136090120739
asS'word'
p339
(lp340
F-3.1322596895310446
aF-3.44216608578472
asS'room'
p341
(lp342
F-2.9561684304753633
aF-3.44216608578472
asS'hour'
p343
(lp344
F-2.734319680859007
aF-3.141136090120739
asS'science'
p345
(lp346
F-3.1322596895310446
aF-3.44216608578472
asS'ride'
p347
(lp348
F-3.433289685195026
aF-2.9650448310650575
asS'clients'
p349
(lp350
F-3.433289685195026
aF-3.141136090120739
asS'soul'
p351
(lp352
F-3.1322596895310446
aF-3.44216608578472
asS'movies'
p353
(lp354
F-2.9561684304753633
aF-2.7431960814487013
asS'sour'
p355
(lp356
F-3.1322596895310446
aF-3.44216608578472
asS'indescribably'
p357
(lp358
F-2.9561684304753633
aF-3.44216608578472
asS'thin'
p359
(lp360
F-2.9561684304753633
aF-3.44216608578472
asS'evolved'
p361
(lp362
F-3.433289685195026
aF-3.141136090120739
asS'making'
p363
(lp364
F-3.1322596895310446
aF-3.44216608578472
asS'male'
p365
(lp366
F-3.433289685195026
aF-3.141136090120739
asS'conformity'
p367
(lp368
F-3.1322596895310446
aF-3.44216608578472
asS'cussing'
p369
(lp370
F-3.433289685195026
aF-3.141136090120739
asS'slightest'
p371
(lp372
F-3.1322596895310446
aF-3.44216608578472
asS'history'
p373
(lp374
F-2.9561684304753633
aF-3.44216608578472
asS'beautiful'
p375
(lp376
F-3.433289685195026
aF-2.8401060944567575
asS'heart'
p377
(lp378
F-3.433289685195026
aF-2.8401060944567575
asS'everyone'
p379
(lp380
F-3.1322596895310446
aF-3.44216608578472
asS'ingenuity'
p381
(lp382
F-3.1322596895310446
aF-3.44216608578472
asS'indie'
p383
(lp384
F-3.1322596895310446
aF-3.44216608578472
asS'laughs'
p385
(lp386
F-3.1322596895310446
aF-3.44216608578472
asS'pieces'
p387
(lp388
F-3.433289685195026
aF-3.141136090120739
asS'imitation'
p389
(lp390
F-3.1322596895310446
aF-3.44216608578472
asS'documenting'
p391
(lp392
F-3.433289685195026
aF-3.141136090120739
asS'sense'
p393
(lp394
F-3.433289685195026
aF-3.141136090120739
asS'lacks'
p395
(lp396
F-3.1322596895310446
aF-3.44216608578472
asS'mainstream'
p397
(lp398
F-3.1322596895310446
aF-3.44216608578472
asS'huge'
p399
(lp400
F-3.1322596895310446
aF-3.44216608578472
asS'exoticism'
p401
(lp402
F-3.433289685195026
aF-3.141136090120739
asS'redundancy'
p403
(lp404
F-2.9561684304753633
aF-3.44216608578472
asS'end'
p405
(lp406
F-2.734319680859007
aF-3.141136090120739
asS'daring'
p407
(lp408
F-3.433289685195026
aF-3.141136090120739
asS'sit'
p409
(lp410
F-2.6551384348113825
aF-3.44216608578472
asS'rather'
p411
(lp412
F-2.9561684304753633
aF-2.9650448310650575
asS'acts'
p413
(lp414
F-3.433289685195026
aF-3.141136090120739
asS'feature'
p415
(lp416
F-3.433289685195026
aF-2.664014835401076
asS'far'
p417
(lp418
F-3.1322596895310446
aF-3.44216608578472
asS'hot'
p419
(lp420
F-3.433289685195026
aF-3.141136090120739
asS'hop'
p421
(lp422
F-3.1322596895310446
aF-3.44216608578472
asS'instead'
p423
(lp424
F-2.9561684304753633
aF-3.44216608578472
asS'comedy'
p425
(lp426
F-2.5301996982030825
aF-2.296038050106482
asS'intelligent'
p427
(lp428
F-3.433289685195026
aF-2.7431960814487013
asS'tension'
p429
(lp430
F-3.433289685195026
aF-3.44216608578472
asS'explores'
p431
(lp432
F-3.433289685195026
aF-3.141136090120739
asS'intended'
p433
(lp434
F-3.433289685195026
aF-3.44216608578472
asS'capture'
p435
(lp436
F-3.433289685195026
aF-2.8401060944567575
asS'may'
p437
(lp438
F-3.433289685195026
aF-2.9650448310650575
asS'demonstrates'
p439
(lp440
F-3.433289685195026
aF-2.8401060944567575
asS'sacrifice'
p441
(lp442
F-3.433289685195026
aF-3.141136090120739
asS'communal'
p443
(lp444
F-3.433289685195026
aF-3.141136090120739
asS'collection'
p445
(lp446
F-3.433289685195026
aF-3.141136090120739
asS'adventure'
p447
(lp448
F-3.433289685195026
aF-3.141136090120739
asS'coming'
p449
(lp450
F-2.9561684304753633
aF-3.44216608578472
asS'date'
p451
(lp452
F-3.1322596895310446
aF-3.44216608578472
asS'such'
p453
(lp454
F-3.433289685195026
aF-2.8401060944567575
asS'nomination'
p455
(lp456
F-3.433289685195026
aF-3.141136090120739
asS'bleak'
p457
(lp458
F-3.1322596895310446
aF-3.44216608578472
asS'man'
p459
(lp460
F-3.1322596895310446
aF-2.8401060944567575
asS'contrived'
p461
(lp462
F-2.8312296938670634
aF-3.44216608578472
asS'short'
p463
(lp464
F-3.1322596895310446
aF-3.44216608578472
asS'natural'
p465
(lp466
F-3.433289685195026
aF-3.141136090120739
asS'splendid'
p467
(lp468
F-3.433289685195026
aF-3.141136090120739
asS'effective'
p469
(lp470
F-3.433289685195026
aF-3.141136090120739
asS'counter'
p471
(lp472
F-3.433289685195026
aF-3.141136090120739
asS'redundant'
p473
(lp474
F-3.1322596895310446
aF-3.44216608578472
asS'tale'
p475
(lp476
F-3.433289685195026
aF-2.664014835401076
asS'chief'
p477
(lp478
F-3.433289685195026
aF-3.141136090120739
asS'funniest'
p479
(lp480
F-3.433289685195026
aF-3.141136090120739
asS'pay'
p481
(lp482
F-3.1322596895310446
aF-3.44216608578472
asS'worst'
p483
(lp484
F-2.6551384348113825
aF-3.44216608578472
asS'order'
p485
(lp486
F-3.433289685195026
aF-3.141136090120739
asS'executed'
p487
(lp488
F-3.433289685195026
aF-2.8401060944567575
asS'unfolds'
p489
(lp490
F-3.433289685195026
aF-3.141136090120739
asS'muzak'
p491
(lp492
F-2.9561684304753633
aF-3.44216608578472
asS'insight'
p493
(lp494
F-3.433289685195026
aF-2.9650448310650575
asS'midnight'
p495
(lp496
F-3.433289685195026
aF-2.8401060944567575
asS'satisfied'
p497
(lp498
F-3.433289685195026
aF-3.141136090120739
asS'years'
p499
(lp500
F-2.9561684304753633
aF-2.7431960814487013
asS'playful'
p501
(lp502
F-3.433289685195026
aF-2.8401060944567575
asS'awful'
p503
(lp504
F-3.1322596895310446
aF-3.44216608578472
asS'paper'
p505
(lp506
F-3.1322596895310446
aF-3.44216608578472
asS'through'
p507
(lp508
F-2.391897000036801
aF-3.44216608578472
asS'budding'
p509
(lp510
F-3.433289685195026
aF-3.141136090120739
asS'visceral'
p511
(lp512
F-3.433289685195026
aF-3.141136090120739
asS'operative'
p513
(lp514
F-3.1322596895310446
aF-3.44216608578472
asS'before'
p515
(lp516
F-2.9561684304753633
aF-3.44216608578472
asS'perfect'
p517
(lp518
F-3.433289685195026
aF-2.9650448310650575
asS'style'
p519
(lp520
F-3.433289685195026
aF-2.9650448310650575
asS'comedic'
p521
(lp522
F-3.433289685195026
aF-3.141136090120739
asS'broiling'
p523
(lp524
F-2.9561684304753633
aF-3.44216608578472
asS'burning'
p525
(lp526
F-3.433289685195026
aF-3.141136090120739
asS'fit'
p527
(lp528
F-3.1322596895310446
aF-3.44216608578472
asS'interesting'
p529
(lp530
F-2.9561684304753633
aF-2.8401060944567575
asS'll'
p531
(lp532
F-2.6551384348113825
aF-3.44216608578472
asS'jim'
p533
(lp534
F-3.433289685195026
aF-3.44216608578472
asS'better'
p535
(lp536
F-3.433289685195026
aF-3.141136090120739
asS'feel'
p537
(lp538
F-2.588191645180769
aF-2.7431960814487013
asS'production'
p539
(lp540
F-2.9561684304753633
aF-3.44216608578472
asS'compelling'
p541
(lp542
F-3.433289685195026
aF-2.9650448310650575
asS'astonish'
p543
(lp544
F-3.433289685195026
aF-3.141136090120739
asS'cool'
p545
(lp546
F-3.433289685195026
aF-3.141136090120739
asS'admirable'
p547
(lp548
F-3.433289685195026
aF-3.141136090120739
asS'overcome'
p549
(lp550
F-3.1322596895310446
aF-3.44216608578472
asS'instantly'
p551
(lp552
F-3.1322596895310446
aF-3.44216608578472
asS'good'
p553
(lp554
F-2.588191645180769
aF-2.4007734006264947
asS'fourth'
p555
(lp556
F-3.433289685195026
aF-3.141136090120739
asS'impulses'
p557
(lp558
F-3.433289685195026
aF-3.141136090120739
asS'conversations'
p559
(lp560
F-3.433289685195026
aF-3.141136090120739
asS'material'
p561
(lp562
F-2.8312296938670634
aF-3.44216608578472
asS'scene'
p563
(lp564
F-3.433289685195026
aF-3.141136090120739
asS'lunch'
p565
(lp566
F-2.9561684304753633
aF-3.44216608578472
asS'walls'
p567
(lp568
F-3.433289685195026
aF-3.141136090120739
asS'touching'
p569
(lp570
F-3.433289685195026
aF-3.141136090120739
asS'litmus'
p571
(lp572
F-3.1322596895310446
aF-3.44216608578472
asS'base'
p573
(lp574
F-3.433289685195026
aF-3.141136090120739
asS'half'
p575
(lp576
F-2.6551384348113825
aF-3.44216608578472
asS'not'
p577
(lp578
F-2.391897000036801
aF-2.5390760987927763
asS'downright'
p579
(lp580
F-3.1322596895310446
aF-3.44216608578472
asS'viewers'
p581
(lp582
F-3.433289685195026
aF-3.44216608578472
asS'represents'
p583
(lp584
F-3.433289685195026
aF-3.141136090120739
asS'gets'
p585
(lp586
F-2.8312296938670634
aF-3.141136090120739
asS'earthly'
p587
(lp588
F-3.1322596895310446
aF-3.44216608578472
asS'opera'
p589
(lp590
F-3.433289685195026
aF-3.141136090120739
asS'always'
p591
(lp592
F-3.433289685195026
aF-2.8401060944567575
asS'debut'
p593
(lp594
F-3.433289685195026
aF-2.7431960814487013
asS'delightful'
p595
(lp596
F-3.433289685195026
aF-3.141136090120739
asS'truth'
p597
(lp598
F-3.433289685195026
aF-3.141136090120739
asS'rock'
p599
(lp600
F-2.734319680859007
aF-3.44216608578472
asS'done'
p601
(lp602
F-3.433289685195026
aF-2.9650448310650575
asS'entirely'
p603
(lp604
F-2.734319680859007
aF-3.44216608578472
asS'friendship'
p605
(lp606
F-3.433289685195026
aF-3.141136090120739
asS'studios'
p607
(lp608
F-3.1322596895310446
aF-3.44216608578472
asS'clams'
p609
(lp610
F-2.9561684304753633
aF-3.44216608578472
asS'delicious'
p611
(lp612
F-3.433289685195026
aF-3.141136090120739
asS'meaningless'
p613
(lp614
F-2.9561684304753633
aF-3.44216608578472
asS'energy'
p615
(lp616
F-3.433289685195026
aF-2.9650448310650575
asS'hard'
p617
(lp618
F-2.9561684304753633
aF-3.141136090120739
asS'diane'
p619
(lp620
F-3.433289685195026
aF-3.141136090120739
asS'spider'
p621
(lp622
F-3.433289685195026
aF-3.141136090120739
asS'engaging'
p623
(lp624
F-3.433289685195026
aF-2.664014835401076
asS'bland'
p625
(lp626
F-2.8312296938670634
aF-3.44216608578472
asS'thirteen'
p627
(lp628
F-3.433289685195026
aF-3.141136090120739
asS'weave'
p629
(lp630
F-3.433289685195026
aF-3.141136090120739
asS'stealing'
p631
(lp632
F-2.9561684304753633
aF-3.44216608578472
asS'girl'
p633
(lp634
F-3.1322596895310446
aF-3.141136090120739
asS'beyond'
p635
(lp636
F-3.1322596895310446
aF-3.44216608578472
asS'special'
p637
(lp638
F-3.1322596895310446
aF-3.44216608578472
asS'really'
p639
(lp640
F-2.6551384348113825
aF-3.44216608578472
asS'ultimately'
p641
(lp642
F-3.1322596895310446
aF-3.44216608578472
asS'jackson'
p643
(lp644
F-3.433289685195026
aF-3.44216608578472
asS'psychology'
p645
(lp646
F-3.433289685195026
aF-3.141136090120739
asS'entertainment'
p647
(lp648
F-2.9561684304753633
aF-3.44216608578472
asS'god'
p649
(lp650
F-3.433289685195026
aF-3.141136090120739
asS'since'
p651
(lp652
F-2.9561684304753633
aF-3.44216608578472
asS'looking'
p653
(lp654
F-3.1322596895310446
aF-3.44216608578472
asS're'
p655
(lp656
F-2.9561684304753633
aF-3.141136090120739
asS'numbingly'
p657
(lp658
F-2.9561684304753633
aF-3.44216608578472
asS'stuff'
p659
(lp660
F-3.433289685195026
aF-2.8401060944567575
asS'hilarious'
p661
(lp662
F-3.433289685195026
aF-2.5390760987927763
asS'suggesting'
p663
(lp664
F-3.433289685195026
aF-3.141136090120739
asS'got'
p665
(lp666
F-3.1322596895310446
aF-3.44216608578472
asS'slapdash'
p667
(lp668
F-3.1322596895310446
aF-3.44216608578472
asS'dominate'
p669
(lp670
F-3.433289685195026
aF-3.141136090120739
asS'warm'
p671
(lp672
F-3.433289685195026
aF-2.8401060944567575
asS'monster'
p673
(lp674
F-3.1322596895310446
aF-3.141136090120739
asS'infidelity'
p675
(lp676
F-3.433289685195026
aF-3.141136090120739
asS'easily'
p677
(lp678
F-3.433289685195026
aF-3.141136090120739
asS'story'
p679
(lp680
F-2.5301996982030825
aF-2.4879235763453953
asS'quite'
p681
(lp682
F-3.1322596895310446
aF-3.44216608578472
asS'extraordinary'
p683
(lp684
F-3.433289685195026
aF-2.9650448310650575
asS'reason'
p685
(lp686
F-3.1322596895310446
aF-3.44216608578472
asS'dashing'
p687
(lp688
F-3.433289685195026
aF-3.141136090120739
asS'surely'
p689
(lp690
F-3.1322596895310446
aF-3.44216608578472
asS'imagine'
p691
(lp692
F-2.734319680859007
aF-3.44216608578472
asS'put'
p693
(lp694
F-2.9561684304753633
aF-3.44216608578472
asS'wanted'
p695
(lp696
F-3.433289685195026
aF-3.44216608578472
asS'care'
p697
(lp698
F-2.9561684304753633
aF-2.9650448310650575
asS'broaches'
p699
(lp700
F-3.433289685195026
aF-3.141136090120739
asS'echelons'
p701
(lp702
F-3.433289685195026
aF-3.141136090120739
asS'shocking'
p703
(lp704
F-3.1322596895310446
aF-3.44216608578472
asS'created'
p705
(lp706
F-3.433289685195026
aF-3.141136090120739
asS'starts'
p707
(lp708
F-3.1322596895310446
aF-3.44216608578472
asS'sitcom'
p709
(lp710
F-3.1322596895310446
aF-3.44216608578472
asS'british'
p711
(lp712
F-3.433289685195026
aF-3.141136090120739
asS'times'
p713
(lp714
F-2.9561684304753633
aF-3.44216608578472
asS'motion'
p715
(lp716
F-3.433289685195026
aF-2.9650448310650575
asS'thing'
p717
(lp718
F-3.1322596895310446
aF-2.9650448310650575
asS'length'
p719
(lp720
F-3.1322596895310446
aF-3.44216608578472
asS'chills'
p721
(lp722
F-3.433289685195026
aF-2.8401060944567575
asS'loud'
p723
(lp724
F-2.9561684304753633
aF-3.44216608578472
asS'flick'
p725
(lp726
F-3.433289685195026
aF-3.44216608578472
asS'vulgar'
p727
(lp728
F-3.433289685195026
aF-3.141136090120739
asS'features'
p729
(lp730
F-3.433289685195026
aF-3.141136090120739
asS'apocalypse'
p731
(lp732
F-3.433289685195026
aF-3.141136090120739
asS'grade'
p733
(lp734
F-3.433289685195026
aF-3.141136090120739
asS'powerful'
p735
(lp736
F-3.433289685195026
aF-2.7431960814487013
asS'inauthentic'
p737
(lp738
F-3.1322596895310446
aF-3.44216608578472
asS'soothing'
p739
(lp740
F-2.9561684304753633
aF-3.44216608578472
asS'fits'
p741
(lp742
F-3.433289685195026
aF-3.141136090120739
asS'wallflower'
p743
(lp744
F-3.433289685195026
aF-3.141136090120739
asS'americans'
p745
(lp746
F-3.433289685195026
aF-3.141136090120739
asS'long'
p747
(lp748
F-2.734319680859007
aF-3.141136090120739
asS'another'
p749
(lp750
F-2.9561684304753633
aF-3.44216608578472
asS'gasp'
p751
(lp752
F-3.433289685195026
aF-3.141136090120739
asS'carry'
p753
(lp754
F-3.433289685195026
aF-3.141136090120739
asS'impossible'
p755
(lp756
F-3.1322596895310446
aF-3.44216608578472
asS'message'
p757
(lp758
F-3.433289685195026
aF-3.44216608578472
asS'concert'
p759
(lp760
F-3.1322596895310446
aF-3.44216608578472
asS'little'
p761
(lp762
F-2.6551384348113825
aF-3.141136090120739
asS'cynical'
p763
(lp764
F-3.1322596895310446
aF-3.44216608578472
asS'script'
p765
(lp766
F-2.6551384348113825
aF-3.44216608578472
asS'murky'
p767
(lp768
F-3.1322596895310446
aF-3.44216608578472
asS'interviews'
p769
(lp770
F-3.433289685195026
aF-3.141136090120739
asS'structured'
p771
(lp772
F-2.9561684304753633
aF-3.44216608578472
asS'twisted'
p773
(lp774
F-3.433289685195026
aF-2.9650448310650575
asS'fiction'
p775
(lp776
F-3.1322596895310446
aF-3.44216608578472
asS'anyone'
p777
(lp778
F-2.9561684304753633
aF-3.141136090120739
asS'outing'
p779
(lp780
F-3.433289685195026
aF-3.141136090120739
asS'flimsy'
p781
(lp782
F-3.1322596895310446
aF-3.44216608578472
asS'wonderful'
p783
(lp784
F-3.433289685195026
aF-2.8401060944567575
asS'too'
p785
(lp786
F-2.433289685195026
aF-3.44216608578472
asS'hollywood'
p787
(lp788
F-3.1322596895310446
aF-3.141136090120739
asS'kid'
p789
(lp790
F-3.433289685195026
aF-3.141136090120739
asS'final'
p791
(lp792
F-3.1322596895310446
aF-3.141136090120739
asS'painful'
p793
(lp794
F-3.433289685195026
aF-3.141136090120739
asS'urban'
p795
(lp796
F-3.433289685195026
aF-3.141136090120739
asS'rewards'
p797
(lp798
F-3.433289685195026
aF-3.141136090120739
asS'trapped'
p799
(lp800
F-3.1322596895310446
aF-3.44216608578472
asS'exactly'
p801
(lp802
F-3.1322596895310446
aF-3.44216608578472
asS'rejected'
p803
(lp804
F-2.9561684304753633
aF-3.44216608578472
asS'dentist'
p805
(lp806
F-2.9561684304753633
aF-3.44216608578472
asS'sequels'
p807
(lp808
F-3.433289685195026
aF-3.44216608578472
asS'predictable'
p809
(lp810
F-2.8312296938670634
aF-3.44216608578472
asS'somewhat'
p811
(lp812
F-3.433289685195026
aF-3.141136090120739
asS'wasted'
p813
(lp814
F-2.9561684304753633
aF-3.44216608578472
asS'attempt'
p815
(lp816
F-3.1322596895310446
aF-3.44216608578472
asS'believe'
p817
(lp818
F-3.1322596895310446
aF-3.44216608578472
asS'crawl'
p819
(lp820
F-3.1322596895310446
aF-3.44216608578472
asS'white'
p821
(lp822
F-3.433289685195026
aF-3.141136090120739
asS'updating'
p823
(lp824
F-3.433289685195026
aF-3.141136090120739
asS'begins'
p825
(lp826
F-3.433289685195026
aF-3.44216608578472
asS'past'
p827
(lp828
F-3.1322596895310446
aF-3.44216608578472
asS'kind'
p829
(lp830
F-3.1322596895310446
aF-2.9650448310650575
asS'grew'
p831
(lp832
F-3.433289685195026
aF-3.141136090120739
asS'portrait'
p833
(lp834
F-3.433289685195026
aF-2.7431960814487013
asS'rival'
p835
(lp836
F-3.433289685195026
aF-3.141136090120739
asS'scenes'
p837
(lp838
F-3.1322596895310446
aF-2.8401060944567575
asS'spirited'
p839
(lp840
F-3.433289685195026
aF-3.141136090120739
asS'sabotaged'
p841
(lp842
F-3.1322596895310446
aF-3.44216608578472
asS'appealing'
p843
(lp844
F-3.433289685195026
aF-3.141136090120739
asS'shyamalan'
p845
(lp846
F-3.433289685195026
aF-3.141136090120739
asS'silly'
p847
(lp848
F-3.1322596895310446
aF-3.44216608578472
asS'uncanny'
p849
(lp850
F-3.433289685195026
aF-3.141136090120739
asS'were'
p851
(lp852
F-2.8312296938670634
aF-3.44216608578472
asS'dumb'
p853
(lp854
F-3.1322596895310446
aF-3.44216608578472
asS'feeling'
p855
(lp856
F-3.433289685195026
aF-3.141136090120739
asS'solely'
p857
(lp858
F-3.433289685195026
aF-3.141136090120739
asS'distinguished'
p859
(lp860
F-2.9561684304753633
aF-3.44216608578472
asS'screenplay'
p861
(lp862
F-3.433289685195026
aF-3.44216608578472
asS'imaginative'
p863
(lp864
F-3.433289685195026
aF-2.8401060944567575
asS'puzzling'
p865
(lp866
F-3.1322596895310446
aF-3.44216608578472
asS'false'
p867
(lp868
F-2.9561684304753633
aF-3.44216608578472
asS'outstanding'
p869
(lp870
F-3.433289685195026
aF-3.141136090120739
asS'thriller'
p871
(lp872
F-3.1322596895310446
aF-2.5390760987927763
asS'turned'
p873
(lp874
F-3.433289685195026
aF-3.141136090120739
asS'spectrum'
p875
(lp876
F-3.433289685195026
aF-3.141136090120739
asS'slap'
p877
(lp878
F-3.433289685195026
aF-3.141136090120739
asS'sad'
p879
(lp880
F-3.1322596895310446
aF-3.44216608578472
asS'himself'
p881
(lp882
F-3.433289685195026
aF-3.44216608578472
asS'suspense'
p883
(lp884
F-3.433289685195026
aF-3.141136090120739
asS'close'
p885
(lp886
F-2.8312296938670634
aF-3.44216608578472
asS'bigelow'
p887
(lp888
F-3.433289685195026
aF-3.141136090120739
asS'seen'
p889
(lp890
F-3.1322596895310446
aF-3.44216608578472
asS'edgy'
p891
(lp892
F-3.433289685195026
aF-3.141136090120739
asS'saw'
p893
(lp894
F-2.9561684304753633
aF-3.44216608578472
asS'clearly'
p895
(lp896
F-3.1322596895310446
aF-3.44216608578472
asS'afraid'
p897
(lp898
F-3.433289685195026
aF-3.141136090120739
asS'genuine'
p899
(lp900
F-3.433289685195026
aF-3.141136090120739
asS'something'
p901
(lp902
F-2.6551384348113825
aF-3.141136090120739
asS'thoroughly'
p903
(lp904
F-2.8312296938670634
aF-3.141136090120739
asS'latter'
p905
(lp906
F-2.9561684304753633
aF-3.44216608578472
asS'ideas'
p907
(lp908
F-3.1322596895310446
aF-3.44216608578472
asS'camouflage'
p909
(lp910
F-3.1322596895310446
aF-3.44216608578472
asS'terrific'
p911
(lp912
F-3.433289685195026
aF-2.9650448310650575
asS'recommended'
p913
(lp914
F-2.9561684304753633
aF-3.44216608578472
asS'recreates'
p915
(lp916
F-3.433289685195026
aF-3.141136090120739
asS'take'
p917
(lp918
F-3.433289685195026
aF-2.9650448310650575
asS'laughed'
p919
(lp920
F-3.433289685195026
aF-3.141136090120739
asS'finding'
p921
(lp922
F-3.1322596895310446
aF-3.44216608578472
asS'performance'
p923
(lp924
F-3.433289685195026
aF-2.4879235763453953
asS'hedonistic'
p925
(lp926
F-3.433289685195026
aF-3.141136090120739
asS'begin'
p927
(lp928
F-2.9561684304753633
aF-3.44216608578472
asS'sure'
p929
(lp930
F-2.8312296938670634
aF-3.44216608578472
asS'bruce'
p931
(lp932
F-3.433289685195026
aF-3.141136090120739
asS'knew'
p933
(lp934
F-3.433289685195026
aF-3.141136090120739
asS'cinematic'
p935
(lp936
F-3.1322596895310446
aF-2.9650448310650575
asS'falls'
p937
(lp938
F-3.1322596895310446
aF-3.44216608578472
asS'assault'
p939
(lp940
F-3.1322596895310446
aF-3.44216608578472
asS'involving'
p941
(lp942
F-3.433289685195026
aF-3.141136090120739
asS'charm'
p943
(lp944
F-3.1322596895310446
aF-3.44216608578472
asS'expertly'
p945
(lp946
F-3.433289685195026
aF-3.141136090120739
asS'nothing'
p947
(lp948
F-2.5301996982030825
aF-3.44216608578472
asS'laughter'
p949
(lp950
F-3.433289685195026
aF-2.9650448310650575
asS'awe'
p951
(lp952
F-3.433289685195026
aF-3.141136090120739
asS'fisted'
p953
(lp954
F-3.1322596895310446
aF-3.44216608578472
asS'extremely'
p955
(lp956
F-3.433289685195026
aF-3.141136090120739
asS'class'
p957
(lp958
F-3.433289685195026
aF-2.9650448310650575
asS'achievement'
p959
(lp960
F-3.433289685195026
aF-2.9650448310650575
asS'machismo'
p961
(lp962
F-3.433289685195026
aF-3.141136090120739
asS'refreshing'
p963
(lp964
F-3.433289685195026
aF-3.141136090120739
asS'surprising'
p965
(lp966
F-3.433289685195026
aF-2.8401060944567575
asS'performances'
p967
(lp968
F-3.1322596895310446
aF-2.238046103128795
asS'prevails'
p969
(lp970
F-3.433289685195026
aF-3.141136090120739
asS'sometimes'
p971
(lp972
F-3.433289685195026
aF-2.664014835401076
asS'm'
p973
(lp974
F-3.433289685195026
aF-3.141136090120739
asS'gracefully'
p975
(lp976
F-3.433289685195026
aF-3.141136090120739
asS'face'
p977
(lp978
F-3.433289685195026
aF-3.141136090120739
asS'astonishing'
p979
(lp980
F-3.433289685195026
aF-2.9650448310650575
asS'definitely'
p981
(lp982
F-3.1322596895310446
aF-3.141136090120739
asS'propels'
p983
(lp984
F-3.433289685195026
aF-3.141136090120739
asS'undeniably'
p985
(lp986
F-3.433289685195026
aF-3.141136090120739
asS'deeply'
p987
(lp988
F-3.433289685195026
aF-2.9650448310650575
asS'everything'
p989
(lp990
F-3.1322596895310446
aF-3.44216608578472
asS'entertaining'
p991
(lp992
F-3.1322596895310446
aF-2.9650448310650575
asS'blend'
p993
(lp994
F-3.433289685195026
aF-3.141136090120739
asS'fact'
p995
(lp996
F-3.1322596895310446
aF-3.44216608578472
asS'walking'
p997
(lp998
F-3.433289685195026
aF-3.141136090120739
asS'shot'
p999
(lp1000
F-3.433289685195026
aF-3.141136090120739
asS'absorbing'
p1001
(lp1002
F-3.433289685195026
aF-2.9650448310650575
asS'indoor'
p1003
(lp1004
F-3.433289685195026
aF-3.141136090120739
asS'cheap'
p1005
(lp1006
F-3.1322596895310446
aF-3.44216608578472
asS'contemporary'
p1007
(lp1008
F-3.433289685195026
aF-3.141136090120739
asS'ending'
p1009
(lp1010
F-3.433289685195026
aF-3.141136090120739
asS'bring'
p1011
(lp1012
F-3.433289685195026
aF-3.141136090120739
asS'solutions'
p1013
(lp1014
F-3.1322596895310446
aF-3.44216608578472
asS'fuzzy'
p1015
(lp1016
F-3.433289685195026
aF-3.141136090120739
asS'telling'
p1017
(lp1018
F-3.1322596895310446
aF-2.664014835401076
asS'stores'
p1019
(lp1020
F-3.1322596895310446
aF-3.44216608578472
asS'fine'
p1021
(lp1022
F-3.433289685195026
aF-3.141136090120739
asS'find'
p1023
(lp1024
F-3.1322596895310446
aF-2.9650448310650575
asS'giant'
p1025
(lp1026
F-3.1322596895310446
aF-3.44216608578472
asS'busy'
p1027
(lp1028
F-3.1322596895310446
aF-3.44216608578472
asS'painfully'
p1029
(lp1030
F-3.1322596895310446
aF-3.44216608578472
asS'earned'
p1031
(lp1032
F-3.433289685195026
aF-3.141136090120739
asS'justice'
p1033
(lp1034
F-3.433289685195026
aF-3.141136090120739
asS'humor'
p1035
(lp1036
F-3.1322596895310446
aF-2.7431960814487013
asS'winner'
p1037
(lp1038
F-3.433289685195026
aF-3.141136090120739
asS'punny'
p1039
(lp1040
F-3.433289685195026
aF-3.141136090120739
asS'waiting'
p1041
(lp1042
F-2.734319680859007
aF-3.44216608578472
asS'crime'
p1043
(lp1044
F-2.8312296938670634
aF-2.7431960814487013
asS'moments'
p1045
(lp1046
F-3.433289685195026
aF-2.8401060944567575
asS'tears'
p1047
(lp1048
F-3.433289685195026
aF-3.141136090120739
asS'bliss'
p1049
(lp1050
F-3.433289685195026
aF-3.141136090120739
asS'touched'
p1051
(lp1052
F-3.433289685195026
aF-3.141136090120739
asS'pretty'
p1053
(lp1054
F-3.433289685195026
aF-3.141136090120739
asS'money'
p1055
(lp1056
F-2.8312296938670634
aF-3.44216608578472
asS'hardened'
p1057
(lp1058
F-3.1322596895310446
aF-3.44216608578472
asS'hip'
p1059
(lp1060
F-2.8312296938670634
aF-3.44216608578472
asS'narrative'
p1061
(lp1062
F-2.6551384348113825
aF-3.44216608578472
asS'american'
p1063
(lp1064
F-3.433289685195026
aF-2.9650448310650575
asS'watching'
p1065
(lp1066
F-2.734319680859007
aF-3.44216608578472
asS'beat'
p1067
(lp1068
F-3.433289685195026
aF-3.141136090120739
asS'goosebumps'
p1069
(lp1070
F-3.433289685195026
aF-3.141136090120739
asS'horrible'
p1071
(lp1072
F-2.8312296938670634
aF-3.44216608578472
asS'watch'
p1073
(lp1074
F-3.1322596895310446
aF-3.141136090120739
asS'cheaper'
p1075
(lp1076
F-3.1322596895310446
aF-3.44216608578472
asS'feels'
p1077
(lp1078
F-2.6551384348113825
aF-3.44216608578472
asS'malaise'
p1079
(lp1080
F-3.1322596895310446
aF-3.44216608578472
asS'inuit'
p1081
(lp1082
F-3.433289685195026
aF-3.141136090120739
asS'nearly'
p1083
(lp1084
F-3.1322596895310446
aF-3.44216608578472
asS'cushion'
p1085
(lp1086
F-2.9561684304753633
aF-3.44216608578472
asS'smug'
p1087
(lp1088
F-3.1322596895310446
aF-3.44216608578472
asS'during'
p1089
(lp1090
F-3.433289685195026
aF-3.141136090120739
asS'contriving'
p1091
(lp1092
F-3.1322596895310446
aF-3.44216608578472
asS'gem'
p1093
(lp1094
F-3.433289685195026
aF-3.141136090120739
asS'endless'
p1095
(lp1096
F-3.1322596895310446
aF-3.44216608578472
asS'course'
p1097
(lp1098
F-3.1322596895310446
aF-3.44216608578472
asS'nicely'
p1099
(lp1100
F-3.433289685195026
aF-3.141136090120739
asS'mcculloch'
p1101
(lp1102
F-3.433289685195026
aF-3.141136090120739
asS'timeless'
p1103
(lp1104
F-3.433289685195026
aF-3.141136090120739
asS'idiotic'
p1105
(lp1106
F-3.1322596895310446
aF-3.44216608578472
asS'monsters'
p1107
(lp1108
F-3.1322596895310446
aF-3.44216608578472
asS'greene'
p1109
(lp1110
F-3.433289685195026
aF-3.141136090120739
asS'jokes'
p1111
(lp1112
F-3.1322596895310446
aF-3.44216608578472
asS'bad'
p1113
(lp1114
F-1.9708916872960698
aF-3.44216608578472
asS'stupid'
p1115
(lp1116
F-2.9561684304753633
aF-3.44216608578472
asS'raunchy'
p1117
(lp1118
F-3.433289685195026
aF-3.141136090120739
asS'wannabe'
p1119
(lp1120
F-2.9561684304753633
aF-3.44216608578472
asS'gibson'
p1121
(lp1122
F-3.433289685195026
aF-3.141136090120739
asS'vision'
p1123
(lp1124
F-3.433289685195026
aF-3.141136090120739
asS'guessing'
p1125
(lp1126
F-3.433289685195026
aF-3.141136090120739
asS'inventive'
p1127
(lp1128
F-3.433289685195026
aF-3.141136090120739
asS'mess'
p1129
(lp1130
F-2.8312296938670634
aF-3.44216608578472
asS'disaster'
p1131
(lp1132
F-2.8312296938670634
aF-3.44216608578472
asS'fascinating'
p1133
(lp1134
F-3.433289685195026
aF-2.5390760987927763
asS'seas'
p1135
(lp1136
F-3.433289685195026
aF-3.141136090120739
asS'potent'
p1137
(lp1138
F-3.433289685195026
aF-3.141136090120739
asS'sex'
p1139
(lp1140
F-3.1322596895310446
aF-3.141136090120739
asS'college'
p1141
(lp1142
F-3.433289685195026
aF-3.141136090120739
asS'simultaneously'
p1143
(lp1144
F-3.433289685195026
aF-2.8401060944567575
asS'luminous'
p1145
(lp1146
F-3.433289685195026
aF-3.141136090120739
asS'prim'
p1147
(lp1148
F-3.433289685195026
aF-3.141136090120739
asS'seems'
p1149
(lp1150
F-3.1322596895310446
aF-3.44216608578472
asS'fails'
p1151
(lp1152
F-3.1322596895310446
aF-3.44216608578472
asS'still'
p1153
(lp1154
F-3.1322596895310446
aF-2.9650448310650575
asS'revolution'
p1155
(lp1156
F-3.1322596895310446
aF-3.44216608578472
asS'pedigree'
p1157
(lp1158
F-3.1322596895310446
aF-3.44216608578472
asS'gags'
p1159
(lp1160
F-3.1322596895310446
aF-3.44216608578472
asS'unsettling'
p1161
(lp1162
F-3.433289685195026
aF-3.141136090120739
asS'movie'
p1163
(lp1164
F-1.7343196808590071
aF-2.1199467910508005
asS'away'
p1165
(lp1166
F-3.433289685195026
aF-2.9650448310650575
asS'demons'
p1167
(lp1168
F-3.433289685195026
aF-3.141136090120739
asS'superb'
p1169
(lp1170
F-3.433289685195026
aF-2.9650448310650575
asS'written'
p1171
(lp1172
F-3.1322596895310446
aF-2.9650448310650575
asS'between'
p1173
(lp1174
F-3.1322596895310446
aF-3.44216608578472
asS'stories'
p1175
(lp1176
F-3.433289685195026
aF-2.8401060944567575
asS'neither'
p1177
(lp1178
F-3.433289685195026
aF-3.44216608578472
asS'dummies'
p1179
(lp1180
F-3.1322596895310446
aF-3.44216608578472
asS'across'
p1181
(lp1182
F-3.1322596895310446
aF-2.8401060944567575
asS'lazy'
p1183
(lp1184
F-2.9561684304753633
aF-3.44216608578472
asS'loose'
p1185
(lp1186
F-2.9561684304753633
aF-3.44216608578472
asS'ability'
p1187
(lp1188
F-3.433289685195026
aF-2.9650448310650575
asS'missing'
p1189
(lp1190
F-3.433289685195026
aF-3.141136090120739
asS'screen'
p1191
(lp1192
F-3.1322596895310446
aF-3.141136090120739
asS'attention'
p1193
(lp1194
F-3.433289685195026
aF-3.141136090120739
asS'deliver'
p1195
(lp1196
F-3.433289685195026
aF-3.141136090120739
asS'embarrassment'
p1197
(lp1198
F-3.1322596895310446
aF-3.44216608578472
asS'job'
p1199
(lp1200
F-3.433289685195026
aF-2.9650448310650575
asS'harvard'
p1201
(lp1202
F-2.9561684304753633
aF-3.44216608578472
asS'nonexistent'
p1203
(lp1204
F-3.1322596895310446
aF-3.44216608578472
asS'premise'
p1205
(lp1206
F-3.433289685195026
aF-3.44216608578472
asS'demonstrate'
p1207
(lp1208
F-3.433289685195026
aF-3.141136090120739
asS'genre'
p1209
(lp1210
F-3.433289685195026
aF-2.9650448310650575
asS'useless'
p1211
(lp1212
F-3.1322596895310446
aF-3.44216608578472
asS'melodrama'
p1213
(lp1214
F-3.433289685195026
aF-3.141136090120739
asS'lyrical'
p1215
(lp1216
F-3.433289685195026
aF-3.141136090120739
asS'both'
p1217
(lp1218
F-3.1322596895310446
aF-3.141136090120739
asS'commands'
p1219
(lp1220
F-3.433289685195026
aF-3.141136090120739
asS'last'
p1221
(lp1222
F-2.734319680859007
aF-3.44216608578472
asS'career'
p1223
(lp1224
F-3.433289685195026
aF-3.141136090120739
asS'many'
p1225
(lp1226
F-3.1322596895310446
aF-2.8401060944567575
asS'barely'
p1227
(lp1228
F-2.588191645180769
aF-3.44216608578472
asS'minds'
p1229
(lp1230
F-3.433289685195026
aF-2.8401060944567575
asS'damned'
p1231
(lp1232
F-3.433289685195026
aF-3.141136090120739
asS'sensitive'
p1233
(lp1234
F-3.433289685195026
aF-3.141136090120739
asS's'
p1235
(lp1236
F-1.6203763285521704
aF-1.8293822290649846
asS'disappointment'
p1237
(lp1238
F-3.1322596895310446
aF-3.44216608578472
asS'logic'
p1239
(lp1240
F-3.1322596895310446
aF-3.44216608578472
asS'whole'
p1241
(lp1242
F-3.1322596895310446
aF-3.44216608578472
asS'otherwise'
p1243
(lp1244
F-3.433289685195026
aF-3.141136090120739
asS'load'
p1245
(lp1246
F-2.9561684304753633
aF-3.44216608578472
asS'point'
p1247
(lp1248
F-2.6551384348113825
aF-3.44216608578472
asS'simple'
p1249
(lp1250
F-3.433289685195026
aF-3.141136090120739
asS'character'
p1251
(lp1252
F-3.1322596895310446
aF-3.44216608578472
asS'acted'
p1253
(lp1254
F-3.1322596895310446
aF-2.9650448310650575
asS'period'
p1255
(lp1256
F-3.433289685195026
aF-2.9650448310650575
asS'incessant'
p1257
(lp1258
F-3.1322596895310446
aF-3.44216608578472
asS'dimensional'
p1259
(lp1260
F-3.1322596895310446
aF-3.44216608578472
asS'atrociously'
p1261
(lp1262
F-3.1322596895310446
aF-3.44216608578472
asS'laugh'
p1263
(lp1264
F-3.1322596895310446
aF-3.44216608578472
asS'majestic'
p1265
(lp1266
F-3.433289685195026
aF-2.9650448310650575
asS'sees'
p1267
(lp1268
F-3.433289685195026
aF-3.44216608578472
asS'frenetic'
p1269
(lp1270
F-3.433289685195026
aF-3.141136090120739
asS'throughout'
p1271
(lp1272
F-3.433289685195026
aF-3.141136090120739
asS'shudder'
p1273
(lp1274
F-3.433289685195026
aF-3.141136090120739
asS'riled'
p1275
(lp1276
F-3.433289685195026
aF-3.141136090120739
asS'addition'
p1277
(lp1278
F-3.433289685195026
aF-3.44216608578472
asS'political'
p1279
(lp1280
F-3.433289685195026
aF-2.9650448310650575
asS'three'
p1281
(lp1282
F-2.6551384348113825
aF-2.9650448310650575
asS'been'
p1283
(lp1284
F-2.6551384348113825
aF-3.44216608578472
asS'whom'
p1285
(lp1286
F-3.1322596895310446
aF-3.44216608578472
asS'charisma'
p1287
(lp1288
F-3.433289685195026
aF-2.9650448310650575
asS'much'
p1289
(lp1290
F-2.9561684304753633
aF-2.44216608578472
asS'stanzas'
p1291
(lp1292
F-3.433289685195026
aF-3.141136090120739
asS'interest'
p1293
(lp1294
F-3.1322596895310446
aF-3.141136090120739
asS'territory'
p1295
(lp1296
F-3.433289685195026
aF-3.141136090120739
asS'incompetent'
p1297
(lp1298
F-3.1322596895310446
aF-3.44216608578472
asS'attractive'
p1299
(lp1300
F-3.433289685195026
aF-3.44216608578472
asS'wants'
p1301
(lp1302
F-2.9561684304753633
aF-3.44216608578472
asS'dialogue'
p1303
(lp1304
F-2.8312296938670634
aF-2.9650448310650575
asS'mind'
p1305
(lp1306
F-2.734319680859007
aF-3.44216608578472
asS'filmmaker'
p1307
(lp1308
F-3.433289685195026
aF-2.9650448310650575
asS'offers'
p1309
(lp1310
F-3.433289685195026
aF-2.7431960814487013
asS'kids'
p1311
(lp1312
F-2.9561684304753633
aF-3.44216608578472
asS'lives'
p1313
(lp1314
F-3.433289685195026
aF-3.44216608578472
asS'reno'
p1315
(lp1316
F-3.433289685195026
aF-3.141136090120739
asS'unamusing'
p1317
(lp1318
F-3.1322596895310446
aF-3.44216608578472
asS'creeps'
p1319
(lp1320
F-3.1322596895310446
aF-3.44216608578472
asS'glides'
p1321
(lp1322
F-3.433289685195026
aF-3.141136090120739
asS'spirit'
p1323
(lp1324
F-3.433289685195026
aF-2.9650448310650575
asS'those'
p1325
(lp1326
F-3.1322596895310446
aF-2.8401060944567575
asS'multi'
p1327
(lp1328
F-3.433289685195026
aF-3.141136090120739
asS'terrible'
p1329
(lp1330
F-2.9561684304753633
aF-3.44216608578472
asS'vapid'
p1331
(lp1332
F-2.9561684304753633
aF-3.44216608578472
asS'tang'
p1333
(lp1334
F-3.1322596895310446
aF-3.44216608578472
asS'plain'
p1335
(lp1336
F-3.1322596895310446
aF-3.44216608578472
asS'brash'
p1337
(lp1338
F-3.433289685195026
aF-3.44216608578472
asS'pretentious'
p1339
(lp1340
F-3.1322596895310446
aF-3.44216608578472
asS'admire'
p1341
(lp1342
F-3.1322596895310446
aF-3.44216608578472
asS'ugly'
p1343
(lp1344
F-3.1322596895310446
aF-3.44216608578472
asS'while'
p1345
(lp1346
F-3.433289685195026
aF-3.141136090120739
asS'smart'
p1347
(lp1348
F-3.433289685195026
aF-3.141136090120739
asS'fun'
p1349
(lp1350
F-2.9561684304753633
aF-2.7431960814487013
asS'guide'
p1351
(lp1352
F-2.9561684304753633
aF-3.44216608578472
asS'chilling'
p1353
(lp1354
F-3.433289685195026
aF-3.141136090120739
asS'pack'
p1355
(lp1356
F-3.433289685195026
aF-3.141136090120739
asS'days'
p1357
(lp1358
F-2.9561684304753633
aF-3.44216608578472
asS'costly'
p1359
(lp1360
F-3.1322596895310446
aF-3.44216608578472
asS've'
p1361
(lp1362
F-2.9561684304753633
aF-3.44216608578472
asS'century'
p1363
(lp1364
F-3.433289685195026
aF-3.44216608578472
asS'almost'
p1365
(lp1366
F-2.9561684304753633
aF-2.9650448310650575
asS'insanely'
p1367
(lp1368
F-3.433289685195026
aF-2.9650448310650575
asS'surprisingly'
p1369
(lp1370
F-3.433289685195026
aF-2.7431960814487013
asS'rip'
p1371
(lp1372
F-3.1322596895310446
aF-3.44216608578472
asS'commander'
p1373
(lp1374
F-3.433289685195026
aF-3.141136090120739
asS'ii'
p1375
(lp1376
F-2.9561684304753633
aF-3.44216608578472
asS'need'
p1377
(lp1378
F-3.1322596895310446
aF-3.44216608578472
asS'someone'
p1379
(lp1380
F-3.1322596895310446
aF-3.44216608578472
asS'audiences'
p1381
(lp1382
F-2.9561684304753633
aF-3.141136090120739
asS'creepy'
p1383
(lp1384
F-3.433289685195026
aF-2.8401060944567575
asS'exterior'
p1385
(lp1386
F-3.433289685195026
aF-3.141136090120739
asS'beautifully'
p1387
(lp1388
F-3.433289685195026
aF-2.8401060944567575
asS'pathology'
p1389
(lp1390
F-3.433289685195026
aF-3.141136090120739
asS'engages'
p1391
(lp1392
F-3.433289685195026
aF-3.141136090120739
asS'augustinian'
p1393
(lp1394
F-3.433289685195026
aF-3.141136090120739
asS'worry'
p1395
(lp1396
F-3.433289685195026
aF-3.141136090120739
asS'secrets'
p1397
(lp1398
F-3.433289685195026
aF-3.44216608578472
asS'funny'
p1399
(lp1400
F-2.734319680859007
aF-2.296038050106482
asS'par'
p1401
(lp1402
F-3.433289685195026
aF-3.141136090120739
asS'pat'
p1403
(lp1404
F-3.433289685195026
aF-3.141136090120739
asS'breathtakingly'
p1405
(lp1406
F-3.433289685195026
aF-3.141136090120739
asS'imax'
p1407
(lp1408
F-3.433289685195026
aF-3.141136090120739
asS'things'
p1409
(lp1410
F-2.9561684304753633
aF-3.44216608578472
asS'make'
p1411
(lp1412
F-2.588191645180769
aF-2.9650448310650575
asS'poetry'
p1413
(lp1414
F-3.433289685195026
aF-3.141136090120739
asS'satisfying'
p1415
(lp1416
F-3.1322596895310446
aF-2.8401060944567575
asS'same'
p1417
(lp1418
F-2.8312296938670634
aF-3.44216608578472
asS'grand'
p1419
(lp1420
F-2.9561684304753633
aF-3.44216608578472
asS'several'
p1421
(lp1422
F-3.1322596895310446
aF-3.44216608578472
asS'privileged'
p1423
(lp1424
F-3.433289685195026
aF-3.141136090120739
asS'grandeur'
p1425
(lp1426
F-3.433289685195026
aF-2.9650448310650575
asS'visually'
p1427
(lp1428
F-2.9561684304753633
aF-3.44216608578472
asS'persona'
p1429
(lp1430
F-3.433289685195026
aF-3.141136090120739
asS'deft'
p1431
(lp1432
F-3.433289685195026
aF-2.9650448310650575
asS'sequel'
p1433
(lp1434
F-2.6551384348113825
aF-3.44216608578472
asS'chaiken'
p1435
(lp1436
F-3.433289685195026
aF-3.141136090120739
asS'rain'
p1437
(lp1438
F-3.1322596895310446
aF-3.44216608578472
asS'director'
p1439
(lp1440
F-2.6551384348113825
aF-2.664014835401076
asS'devoid'
p1441
(lp1442
F-2.9561684304753633
aF-3.44216608578472
asS'moving'
p1443
(lp1444
F-3.433289685195026
aF-2.664014835401076
asS'preachy'
p1445
(lp1446
F-3.1322596895310446
aF-3.44216608578472
asS'never'
p1447
(lp1448
F-2.588191645180769
aF-2.597068045770463
asS'fierce'
p1449
(lp1450
F-3.433289685195026
aF-3.141136090120739
asS'frequently'
p1451
(lp1452
F-3.433289685195026
aF-3.141136090120739
asS'embarrassingly'
p1453
(lp1454
F-3.1322596895310446
aF-3.44216608578472
asS'keep'
p1455
(lp1456
F-3.433289685195026
aF-3.141136090120739
asS'prescribed'
p1457
(lp1458
F-2.9561684304753633
aF-3.44216608578472
asS'characters'
p1459
(lp1460
F-2.588191645180769
aF-2.9650448310650575
asS'off'
p1461
(lp1462
F-2.479047175755701
aF-3.44216608578472
asS'mention'
p1463
(lp1464
F-3.433289685195026
aF-3.44216608578472
asS'eerie'
p1465
(lp1466
F-3.433289685195026
aF-2.9650448310650575
asS'itself'
p1467
(lp1468
F-2.9561684304753633
aF-3.141136090120739
asS'spent'
p1469
(lp1470
F-3.1322596895310446
aF-3.44216608578472
asS'theology'
p1471
(lp1472
F-3.433289685195026
aF-3.141136090120739
asS'thought'
p1473
(lp1474
F-3.433289685195026
aF-3.141136090120739
asS'without'
p1475
(lp1476
F-2.734319680859007
aF-2.4879235763453953
asS'greatest'
p1477
(lp1478
F-3.433289685195026
aF-3.44216608578472
asS'convenient'
p1479
(lp1480
F-3.1322596895310446
aF-3.44216608578472
asS'very'
p1481
(lp1482
F-2.5301996982030825
aF-2.597068045770463
asS'hearts'
p1483
(lp1484
F-3.433289685195026
aF-2.8401060944567575
asS'self'
p1485
(lp1486
F-2.734319680859007
aF-3.44216608578472
asS'left'
p1487
(lp1488
F-2.734319680859007
aF-3.44216608578472
asS'summer'
p1489
(lp1490
F-3.1322596895310446
aF-2.9650448310650575
asS'endeavour'
p1491
(lp1492
F-3.433289685195026
aF-3.141136090120739
asS'less'
p1493
(lp1494
F-2.588191645180769
aF-3.44216608578472
asS'being'
p1495
(lp1496
F-2.6551384348113825
aF-2.9650448310650575
asS'gods'
p1497
(lp1498
F-3.433289685195026
aF-3.141136090120739
asS'ludicrous'
p1499
(lp1500
F-3.1322596895310446
aF-3.44216608578472
asS'young'
p1501
(lp1502
F-3.1322596895310446
aF-3.44216608578472
asS'cooly'
p1503
(lp1504
F-3.433289685195026
aF-3.141136090120739
asS'profoundly'
p1505
(lp1506
F-3.433289685195026
aF-3.141136090120739
asS'sweeping'
p1507
(lp1508
F-3.433289685195026
aF-3.141136090120739
asS'actor'
p1509
(lp1510
F-2.8312296938670634
aF-3.44216608578472
asS'human'
p1511
(lp1512
F-3.433289685195026
aF-2.9650448310650575
asS'world'
p1513
(lp1514
F-3.433289685195026
aF-2.8401060944567575
asS'touch'
p1515
(lp1516
F-3.433289685195026
aF-3.44216608578472
asS'where'
p1517
(lp1518
F-2.9561684304753633
aF-3.44216608578472
asS'punchlines'
p1519
(lp1520
F-3.1322596895310446
aF-3.44216608578472
asS'yet'
p1521
(lp1522
F-2.9561684304753633
aF-3.44216608578472
asS'superficial'
p1523
(lp1524
F-3.1322596895310446
aF-3.44216608578472
asS'cut'
p1525
(lp1526
F-3.1322596895310446
aF-3.44216608578472
asS'ham'
p1527
(lp1528
F-3.1322596895310446
aF-3.44216608578472
asS'fresh'
p1529
(lp1530
F-3.433289685195026
aF-3.141136090120739
asS'shrewd'
p1531
(lp1532
F-3.433289685195026
aF-3.44216608578472
asS'discord'
p1533
(lp1534
F-3.433289685195026
aF-3.141136090120739
asS'had'
p1535
(lp1536
F-2.9561684304753633
aF-2.9650448310650575
asS'likeable'
p1537
(lp1538
F-3.433289685195026
aF-3.141136090120739
asS'boring'
p1539
(lp1540
F-2.588191645180769
aF-3.44216608578472
asS'add'
p1541
(lp1542
F-3.433289685195026
aF-2.9650448310650575
asS'theater'
p1543
(lp1544
F-3.1322596895310446
aF-3.44216608578472
asS'watchable'
p1545
(lp1546
F-3.433289685195026
aF-3.44216608578472
asS'treatment'
p1547
(lp1548
F-3.433289685195026
aF-3.141136090120739
asS'knowledge'
p1549
(lp1550
F-3.433289685195026
aF-3.141136090120739
asS'sweet'
p1551
(lp1552
F-3.433289685195026
aF-2.7431960814487013
asS'has'
p1553
(lp1554
F-2.588191645180769
aF-2.2660748267290387
asS'ca'
p1555
(lp1556
F-3.1322596895310446
aF-3.44216608578472
asS'surprised'
p1557
(lp1558
F-3.433289685195026
aF-3.141136090120739
asS'amusing'
p1559
(lp1560
F-3.433289685195026
aF-3.141136090120739
asS'real'
p1561
(lp1562
F-2.9561684304753633
aF-2.9650448310650575
asS'unrecoverable'
p1563
(lp1564
F-2.9561684304753633
aF-3.44216608578472
asS'aspects'
p1565
(lp1566
F-3.433289685195026
aF-3.141136090120739
asS'captivating'
p1567
(lp1568
F-3.433289685195026
aF-2.9650448310650575
asS'spectacular'
p1569
(lp1570
F-3.433289685195026
aF-3.141136090120739
asS'ops'
p1571
(lp1572
F-3.1322596895310446
aF-3.44216608578472
asS'read'
p1573
(lp1574
F-3.433289685195026
aF-3.44216608578472
asS'big'
p1575
(lp1576
F-3.1322596895310446
aF-3.44216608578472
asS'else'
p1577
(lp1578
F-3.1322596895310446
aF-3.44216608578472
asS'possible'
p1579
(lp1580
F-3.1322596895310446
aF-3.44216608578472
asS'auspicious'
p1581
(lp1582
F-3.433289685195026
aF-3.141136090120739
asS'cultural'
p1583
(lp1584
F-3.433289685195026
aF-2.9650448310650575
asS'formulaic'
p1585
(lp1586
F-3.1322596895310446
aF-3.44216608578472
asS'know'
p1587
(lp1588
F-3.1322596895310446
aF-3.44216608578472
asS'damage'
p1589
(lp1590
F-3.1322596895310446
aF-3.44216608578472
asS'grim'
p1591
(lp1592
F-3.433289685195026
aF-3.141136090120739
asS'dreams'
p1593
(lp1594
F-3.433289685195026
aF-3.141136090120739
asS'apart'
p1595
(lp1596
F-3.1322596895310446
aF-3.44216608578472
asS'brought'
p1597
(lp1598
F-3.1322596895310446
aF-3.44216608578472
asS'necessary'
p1599
(lp1600
F-3.1322596895310446
aF-3.44216608578472
asS'like'
p1601
(lp1602
F-2.0908670043728197
aF-2.5390760987927763
asS'obvious'
p1603
(lp1604
F-2.8312296938670634
aF-3.44216608578472
asS'lacking'
p1605
(lp1606
F-3.1322596895310446
aF-3.44216608578472
asS'subzero'
p1607
(lp1608
F-3.1322596895310446
aF-3.44216608578472
asS'audience'
p1609
(lp1610
F-2.8312296938670634
aF-2.8401060944567575
asS'celluloid'
p1611
(lp1612
F-2.9561684304753633
aF-3.44216608578472
asS'recycled'
p1613
(lp1614
F-3.1322596895310446
aF-3.44216608578472
asS'nose'
p1615
(lp1616
F-3.1322596895310446
aF-3.44216608578472
asS'night'
p1617
(lp1618
F-3.433289685195026
aF-3.141136090120739
asS'chick'
p1619
(lp1620
F-3.433289685195026
aF-3.141136090120739
asS'works'
p1621
(lp1622
F-3.433289685195026
aF-3.141136090120739
asS'trying'
p1623
(lp1624
F-3.1322596895310446
aF-3.44216608578472
asS'unabashedly'
p1625
(lp1626
F-3.433289685195026
aF-3.141136090120739
asS'right'
p1627
(lp1628
F-3.1322596895310446
aF-3.141136090120739
asS'old'
p1629
(lp1630
F-2.5301996982030825
aF-3.44216608578472
asS'crafted'
p1631
(lp1632
F-3.433289685195026
aF-2.664014835401076
asS'obsessions'
p1633
(lp1634
F-3.433289685195026
aF-3.141136090120739
asS'people'
p1635
(lp1636
F-2.6551384348113825
aF-3.141136090120739
asS'absolutely'
p1637
(lp1638
F-3.433289685195026
aF-3.141136090120739
asS'footage'
p1639
(lp1640
F-3.433289685195026
aF-3.141136090120739
asS'creation'
p1641
(lp1642
F-3.433289685195026
aF-3.141136090120739
asS'baked'
p1643
(lp1644
F-3.1322596895310446
aF-3.44216608578472
asS'band'
p1645
(lp1646
F-3.433289685195026
aF-3.141136090120739
asS'images'
p1647
(lp1648
F-3.433289685195026
aF-3.141136090120739
asS'loses'
p1649
(lp1650
F-2.9561684304753633
aF-3.44216608578472
asS'ourselves'
p1651
(lp1652
F-3.433289685195026
aF-3.141136090120739
asS'slice'
p1653
(lp1654
F-3.433289685195026
aF-3.141136090120739
asS'unfunny'
p1655
(lp1656
F-2.734319680859007
aF-3.44216608578472
asS'grandparents'
p1657
(lp1658
F-3.433289685195026
aF-3.141136090120739
asS'riveting'
p1659
(lp1660
F-3.433289685195026
aF-2.9650448310650575
asS'phenomenal'
p1661
(lp1662
F-3.433289685195026
aF-3.141136090120739
asS'best'
p1663
(lp1664
F-3.433289685195026
aF-2.4879235763453953
asS'foreign'
p1665
(lp1666
F-3.1322596895310446
aF-3.141136090120739
asS'witty'
p1667
(lp1668
F-3.433289685195026
aF-2.8401060944567575
asS'snappy'
p1669
(lp1670
F-3.433289685195026
aF-3.141136090120739
asS'rewarding'
p1671
(lp1672
F-3.433289685195026
aF-3.141136090120739
asS'behave'
p1673
(lp1674
F-3.1322596895310446
aF-3.44216608578472
asS'ethos'
p1675
(lp1676
F-3.433289685195026
aF-3.141136090120739
asS'epic'
p1677
(lp1678
F-3.433289685195026
aF-2.9650448310650575
asS'christmas'
p1679
(lp1680
F-2.9561684304753633
aF-3.44216608578472
asS'resolutely'
p1681
(lp1682
F-3.1322596895310446
aF-3.44216608578472
asS't'
p1683
(lp1684
F-3.433289685195026
aF-3.141136090120739
asS'core'
p1685
(lp1686
F-2.8312296938670634
aF-3.44216608578472
asS'noise'
p1687
(lp1688
F-3.1322596895310446
aF-3.44216608578472
asS'run'
p1689
(lp1690
F-3.1322596895310446
aF-3.44216608578472
asS'seconds'
p1691
(lp1692
F-2.9561684304753633
aF-3.44216608578472
asS'each'
p1693
(lp1694
F-3.433289685195026
aF-2.664014835401076
asS'credits'
p1695
(lp1696
F-3.1322596895310446
aF-2.9650448310650575
asS'step'
p1697
(lp1698
F-3.1322596895310446
aF-3.44216608578472
asS'paid'
p1699
(lp1700
F-3.1322596895310446
aF-3.44216608578472
asS'innocence'
p1701
(lp1702
F-3.433289685195026
aF-3.141136090120739
asS'losing'
p1703
(lp1704
F-2.9561684304753633
aF-3.141136090120739
asS'memorable'
p1705
(lp1706
F-3.1322596895310446
aF-2.7431960814487013
asS'willies'
p1707
(lp1708
F-3.433289685195026
aF-2.8401060944567575
asS'intense'
p1709
(lp1710
F-3.433289685195026
aF-3.141136090120739
asS'takes'
p1711
(lp1712
F-3.433289685195026
aF-3.44216608578472
asS'goods'
p1713
(lp1714
F-3.433289685195026
aF-2.9650448310650575
asS'campfire'
p1715
(lp1716
F-3.433289685195026
aF-2.8401060944567575
asS'anything'
p1717
(lp1718
F-2.6551384348113825
aF-3.44216608578472
asS'getting'
p1719
(lp1720
F-3.1322596895310446
aF-3.44216608578472
asS'drama'
p1721
(lp1722
F-3.433289685195026
aF-2.44216608578472
asS'remains'
p1723
(lp1724
F-3.433289685195026
aF-3.141136090120739
asS'rhythms'
p1725
(lp1726
F-2.9561684304753633
aF-3.44216608578472
asS'stand'
p1727
(lp1728
F-2.9561684304753633
aF-3.44216608578472
asS'act'
p1729
(lp1730
F-3.1322596895310446
aF-3.44216608578472
asS'documentary'
p1731
(lp1732
F-3.433289685195026
aF-2.597068045770463
asS'seeing'
p1733
(lp1734
F-3.433289685195026
aF-2.8401060944567575
asS'own'
p1735
(lp1736
F-2.8312296938670634
aF-3.44216608578472
asS'utterly'
p1737
(lp1738
F-3.1322596895310446
aF-3.44216608578472
asS'incoherence'
p1739
(lp1740
F-2.9561684304753633
aF-3.44216608578472
asS'romantic'
p1741
(lp1742
F-3.433289685195026
aF-2.7431960814487013
asS'creativity'
p1743
(lp1744
F-3.433289685195026
aF-3.141136090120739
asS'vulgarity'
p1745
(lp1746
F-3.433289685195026
aF-3.141136090120739
asS'within'
p1747
(lp1748
F-3.433289685195026
aF-3.141136090120739
asS'intellectual'
p1749
(lp1750
F-3.1322596895310446
aF-3.44216608578472
asS'down'
p1751
(lp1752
F-2.734319680859007
aF-2.8401060944567575
asS'finely'
p1753
(lp1754
F-3.433289685195026
aF-3.141136090120739
asS'lively'
p1755
(lp1756
F-3.433289685195026
aF-3.141136090120739
asS'female'
p1757
(lp1758
F-3.433289685195026
aF-2.7431960814487013
asS'cultivated'
p1759
(lp1760
F-3.433289685195026
aF-3.141136090120739
asS'lovely'
p1761
(lp1762
F-3.433289685195026
aF-3.141136090120739
asS'sports'
p1763
(lp1764
F-3.1322596895310446
aF-3.44216608578472
asS'pointless'
p1765
(lp1766
F-2.9561684304753633
aF-3.44216608578472
asS'embrace'
p1767
(lp1768
F-3.433289685195026
aF-3.141136090120739
asS'often'
p1769
(lp1770
F-3.1322596895310446
aF-3.141136090120739
asS'existed'
p1771
(lp1772
F-3.433289685195026
aF-3.141136090120739
asS'art'
p1773
(lp1774
F-3.1322596895310446
aF-3.44216608578472
asS'fast'
p1775
(lp1776
F-3.433289685195026
aF-3.141136090120739
asS'deception'
p1777
(lp1778
F-3.433289685195026
aF-3.141136090120739
asS'beneath'
p1779
(lp1780
F-3.433289685195026
aF-3.141136090120739
asS'rushed'
p1781
(lp1782
F-3.1322596895310446
aF-3.44216608578472
asS'amazingly'
p1783
(lp1784
F-3.433289685195026
aF-3.141136090120739
asS'talent'
p1785
(lp1786
F-3.433289685195026
aF-3.141136090120739
asS'specifically'
p1787
(lp1788
F-3.433289685195026
aF-3.141136090120739
asS'why'
p1789
(lp1790
F-2.734319680859007
aF-3.44216608578472
asS'stuck'
p1791
(lp1792
F-3.433289685195026
aF-3.141136090120739
asS'low'
p1793
(lp1794
F-2.734319680859007
aF-3.44216608578472
asS'lot'
p1795
(lp1796
F-3.1322596895310446
aF-3.44216608578472
asS'biggest'
p1797
(lp1798
F-2.9561684304753633
aF-3.44216608578472
asS'call'
p1799
(lp1800
F-3.433289685195026
aF-3.141136090120739
asS'exceptional'
p1801
(lp1802
F-3.433289685195026
aF-2.8401060944567575
asS'bored'
p1803
(lp1804
F-3.1322596895310446
aF-3.141136090120739
asS'war'
p1805
(lp1806
F-3.1322596895310446
aF-3.44216608578472
asS'happy'
p1807
(lp1808
F-3.433289685195026
aF-3.141136090120739
asS'hookers'
p1809
(lp1810
F-3.433289685195026
aF-3.141136090120739
asS'head'
p1811
(lp1812
F-3.1322596895310446
aF-3.44216608578472
asS'stooping'
p1813
(lp1814
F-3.433289685195026
aF-3.141136090120739
asS'complete'
p1815
(lp1816
F-2.8312296938670634
aF-3.44216608578472
asS'enough'
p1817
(lp1818
F-2.734319680859007
aF-3.141136090120739
asS'fundamentals'
p1819
(lp1820
F-3.433289685195026
aF-3.141136090120739
asS'directing'
p1821
(lp1822
F-3.433289685195026
aF-3.141136090120739
asS'editing'
p1823
(lp1824
F-2.8312296938670634
aF-3.44216608578472
asS'gorgeous'
p1825
(lp1826
F-3.433289685195026
aF-3.141136090120739
asS'idea'
p1827
(lp1828
F-2.734319680859007
aF-3.141136090120739
asS'failure'
p1829
(lp1830
F-2.9561684304753633
aF-3.44216608578472
asS'talents'
p1831
(lp1832
F-3.1322596895310446
aF-3.44216608578472
asS'manipulative'
p1833
(lp1834
F-3.1322596895310446
aF-3.44216608578472
asS'game'
p1835
(lp1836
F-3.433289685195026
aF-2.9650448310650575
asS'hopes'
p1837
(lp1838
F-3.1322596895310446
aF-3.44216608578472
asS'delivers'
p1839
(lp1840
F-3.433289685195026
aF-2.7431960814487013
asS'surrender'
p1841
(lp1842
F-2.9561684304753633
aF-3.44216608578472
asS'dull'
p1843
(lp1844
F-3.1322596895310446
aF-3.44216608578472
asS'decades'
p1845
(lp1846
F-3.433289685195026
aF-3.141136090120739
asS'captures'
p1847
(lp1848
F-3.433289685195026
aF-3.141136090120739
asS'waste'
p1849
(lp1850
F-3.1322596895310446
aF-3.44216608578472
asS'wretchedly'
p1851
(lp1852
F-3.1322596895310446
aF-3.44216608578472
asS'heartwarming'
p1853
(lp1854
F-3.433289685195026
aF-2.9650448310650575
asS'inane'
p1855
(lp1856
F-3.1322596895310446
aF-3.44216608578472
asS'garbage'
p1857
(lp1858
F-3.1322596895310446
aF-3.44216608578472
asS'exploration'
p1859
(lp1860
F-3.433289685195026
aF-3.141136090120739
asS'charmer'
p1861
(lp1862
F-3.433289685195026
aF-3.141136090120739
asS'emotional'
p1863
(lp1864
F-2.9561684304753633
aF-2.9650448310650575
asS'problem'
p1865
(lp1866
F-3.1322596895310446
aF-3.44216608578472
asS'piece'
p1867
(lp1868
F-3.1322596895310446
aF-3.44216608578472
asS'similar'
p1869
(lp1870
F-3.433289685195026
aF-3.141136090120739
asS'clear'
p1871
(lp1872
F-3.1322596895310446
aF-3.44216608578472
asS'penetrating'
p1873
(lp1874
F-3.433289685195026
aF-3.141136090120739
asS'constant'
p1875
(lp1876
F-3.433289685195026
aF-3.141136090120739
asS'adults'
p1877
(lp1878
F-3.1322596895310446
aF-3.44216608578472
asS'taste'
p1879
(lp1880
F-3.433289685195026
aF-3.141136090120739
asS'minutes'
p1881
(lp1882
F-2.287161649516788
aF-3.141136090120739
asS'accents'
p1883
(lp1884
F-3.1322596895310446
aF-3.44216608578472
asS'filmmaking'
p1885
(lp1886
F-3.433289685195026
aF-3.141136090120739
asS'life'
p1887
(lp1888
F-2.479047175755701
aF-3.141136090120739
asS'covers'
p1889
(lp1890
F-3.433289685195026
aF-3.141136090120739
asS'fellow'
p1891
(lp1892
F-3.433289685195026
aF-3.141136090120739
asS'imagination'
p1893
(lp1894
F-2.9561684304753633
aF-3.141136090120739
asS'single'
p1895
(lp1896
F-3.1322596895310446
aF-3.44216608578472
asS'proves'
p1897
(lp1898
F-3.433289685195026
aF-2.8401060944567575
asS'walked'
p1899
(lp1900
F-3.1322596895310446
aF-3.44216608578472
asS'believable'
p1901
(lp1902
F-3.433289685195026
aF-3.141136090120739
asS'evocative'
p1903
(lp1904
F-3.433289685195026
aF-3.141136090120739
asS'tremble'
p1905
(lp1906
F-3.433289685195026
aF-3.141136090120739
asS'film'
p1907
(lp1908
F-2.0908670043728197
aF-1.937016107464814
asS'constructed'
p1909
(lp1910
F-3.433289685195026
aF-3.44216608578472
asS'tedious'
p1911
(lp1912
F-3.1322596895310446
aF-3.44216608578472
asS'again'
p1913
(lp1914
F-3.1322596895310446
aF-3.44216608578472
asS'spell'
p1915
(lp1916
F-3.433289685195026
aF-3.141136090120739
asS'faithful'
p1917
(lp1918
F-3.433289685195026
aF-3.141136090120739
asS'no'
p1919
(lp1920
F-2.588191645180769
aF-3.44216608578472
asS'offensive'
p1921
(lp1922
F-3.1322596895310446
aF-3.44216608578472
asS'detail'
p1923
(lp1924
F-3.433289685195026
aF-2.9650448310650575
asS'handed'
p1925
(lp1926
F-3.433289685195026
aF-3.141136090120739
asS'actors'
p1927
(lp1928
F-3.433289685195026
aF-2.8401060944567575
asS'becomes'
p1929
(lp1930
F-3.1322596895310446
aF-3.44216608578472
asS'test'
p1931
(lp1932
F-2.8312296938670634
aF-3.44216608578472
asS'incredibly'
p1933
(lp1934
F-3.433289685195026
aF-2.9650448310650575
asS'nt'
p1935
(lp1936
F-2.018316337224208
aF-2.9650448310650575
asS'roll'
p1937
(lp1938
F-3.433289685195026
aF-2.9650448310650575
asS'absurd'
p1939
(lp1940
F-3.433289685195026
aF-3.141136090120739
asS'picture'
p1941
(lp1942
F-2.8312296938670634
aF-2.9650448310650575
asS'draw'
p1943
(lp1944
F-3.433289685195026
aF-3.141136090120739
asS'energetic'
p1945
(lp1946
F-3.433289685195026
aF-3.141136090120739
asS'separate'
p1947
(lp1948
F-3.433289685195026
aF-3.141136090120739
asS'wonderfully'
p1949
(lp1950
F-3.433289685195026
aF-2.9650448310650575
asS'welcome'
p1951
(lp1952
F-3.433289685195026
aF-3.44216608578472
asS'problems'
p1953
(lp1954
F-2.9561684304753633
aF-3.44216608578472
asS'masterpiece'
p1955
(lp1956
F-3.433289685195026
aF-2.8401060944567575
asS'scores'
p1957
(lp1958
F-3.433289685195026
aF-3.44216608578472
asS'dullest'
p1959
(lp1960
F-3.1322596895310446
aF-3.44216608578472
asS'mamet'
p1961
(lp1962
F-3.433289685195026
aF-3.141136090120739
asS'aragorn'
p1963
(lp1964
F-3.433289685195026
aF-3.141136090120739
asS'desert'
p1965
(lp1966
F-3.1322596895310446
aF-3.44216608578472
asS'ago'
p1967
(lp1968
F-3.433289685195026
aF-3.141136090120739
asS'lane'
p1969
(lp1970
F-3.433289685195026
aF-3.141136090120739
asS'suffers'
p1971
(lp1972
F-3.1322596895310446
aF-3.44216608578472
asS'builds'
p1973
(lp1974
F-3.433289685195026
aF-2.9650448310650575
asS'stunt'
p1975
(lp1976
F-3.1322596895310446
aF-3.44216608578472
asS'examination'
p1977
(lp1978
F-3.433289685195026
aF-3.141136090120739
asS'values'
p1979
(lp1980
F-3.1322596895310446
aF-3.44216608578472
asS'age'
p1981
(lp1982
F-3.433289685195026
aF-2.9650448310650575
asS'holes'
p1983
(lp1984
F-3.1322596895310446
aF-3.44216608578472
asS'pseudo'
p1985
(lp1986
F-3.1322596895310446
aF-3.44216608578472
asS'together'
p1987
(lp1988
F-2.9561684304753633
aF-3.141136090120739
asS'having'
p1989
(lp1990
F-3.1322596895310446
aF-3.44216608578472
asS'cohesion'
p1991
(lp1992
F-3.1322596895310446
aF-3.44216608578472
asS'directors'
p1993
(lp1994
F-3.433289685195026
aF-3.141136090120739
asS'dramatic'
p1995
(lp1996
F-3.433289685195026
aF-2.8401060944567575
asS'hugely'
p1997
(lp1998
F-3.433289685195026
aF-2.9650448310650575
asS'time'
p1999
(lp2000
F-2.588191645180769
aF-2.7431960814487013
asS'serious'
p2001
(lp2002
F-2.9561684304753633
aF-3.141136090120739
asS'backward'
p2003
(lp2004
F-3.1322596895310446
aF-3.44216608578472
asS'inc'
p2005
(lp2006
F-3.1322596895310446
aF-3.44216608578472
asS'original'
p2007
(lp2008
F-2.9561684304753633
aF-2.8401060944567575
asS'paced'
p2009
(lp2010
F-3.1322596895310446
aF-3.44216608578472
asS'once'
p2011
(lp2012
F-3.433289685195026
aF-3.141136090120739
as.